ARM GAS  C:\Users\Kyle\AppData\Local\Temp\ccoGrmoH.s 			page 1


   1              		.syntax unified
   2              		.cpu cortex-m0
   3              		.fpu softvfp
   4              		.eabi_attribute 20, 1
   5              		.eabi_attribute 21, 1
   6              		.eabi_attribute 23, 3
   7              		.eabi_attribute 24, 1
   8              		.eabi_attribute 25, 1
   9              		.eabi_attribute 26, 1
  10              		.eabi_attribute 30, 1
  11              		.eabi_attribute 34, 0
  12              		.eabi_attribute 18, 4
  13              		.thumb
  14              		.syntax unified
  15              		.file	"AS7262_psoc4.c"
  16              		.text
  17              	.Ltext0:
  18              		.cfi_sections	.debug_frame
  19              		.section	.text.I2C_AS7262_ReadRegister,"ax",%progbits
  20              		.align	2
  21              		.global	I2C_AS7262_ReadRegister
  22              		.code	16
  23              		.thumb_func
  24              		.type	I2C_AS7262_ReadRegister, %function
  25              	I2C_AS7262_ReadRegister:
  26              	.LFB42:
  27              		.file 1 "AS7262_psoc4.c"
   1:AS7262_psoc4.c **** /*******************************************************************************
   2:AS7262_psoc4.c ****  * File Name: AS7262.c
   3:AS7262_psoc4.c ****  * Version 0.20
   4:AS7262_psoc4.c ****  *
   5:AS7262_psoc4.c ****  * Description:
   6:AS7262_psoc4.c ****  *  This file provides functions to control an AS7262 color sensor through the I2C.
   7:AS7262_psoc4.c ****  *  This file depends on i2c_functions to worik
   8:AS7262_psoc4.c ****  *
   9:AS7262_psoc4.c **** *******************************************************************************
  10:AS7262_psoc4.c ****  * Copyright by Kyle Lopin, Naresuan University, 2017
  11:AS7262_psoc4.c ****  * All Rights Reserved
  12:AS7262_psoc4.c ****  * UNPUBLISHED, LICENSED SOFTWARE.
  13:AS7262_psoc4.c ****  *
  14:AS7262_psoc4.c ****  * CONFIDENTIAL AND PROPRIETARY INFORMATION
  15:AS7262_psoc4.c ****  * WHICH IS THE PROPERTY OF Naresuan University.
  16:AS7262_psoc4.c ****  *
  17:AS7262_psoc4.c ****  * ========================================
  18:AS7262_psoc4.c **** */
  19:AS7262_psoc4.c **** 
  20:AS7262_psoc4.c **** #include "AS7262_psoc4.h"
  21:AS7262_psoc4.c **** // standard libraries
  22:AS7262_psoc4.c **** #include "stdio.h"
  23:AS7262_psoc4.c **** // local files
  24:AS7262_psoc4.c **** #include "usb_psoc4.h"
  25:AS7262_psoc4.c **** 
  26:AS7262_psoc4.c **** #define AS72XX_SLAVE_STATUS_REG 0x00
  27:AS7262_psoc4.c **** #define AS72XX_SLAVE_WRITE_REG 0x01
  28:AS7262_psoc4.c **** #define AS72XX_SLAVE_READ_REG 0x02
  29:AS7262_psoc4.c **** #define AS72XX_SLAVE_TX_VALID   0x02
  30:AS7262_psoc4.c **** #define AS72XX_SLAVE_RX_VALID   0x01
ARM GAS  C:\Users\Kyle\AppData\Local\Temp\ccoGrmoH.s 			page 2


  31:AS7262_psoc4.c **** uint8 read_buffer[24];
  32:AS7262_psoc4.c **** uint8 write_buffer[2];
  33:AS7262_psoc4.c **** 
  34:AS7262_psoc4.c **** /***************************************
  35:AS7262_psoc4.c **** *      Function Prototypes
  36:AS7262_psoc4.c **** ***************************************/
  37:AS7262_psoc4.c **** 
  38:AS7262_psoc4.c **** uint8 update_control_reg_value(AS7262_settings* as7262_ptr);
  39:AS7262_psoc4.c **** uint8 update_LED_reg_value(AS7262_settings* as7262_ptr);
  40:AS7262_psoc4.c **** 
  41:AS7262_psoc4.c **** uint8 virtual_reg_read(uint8 reg_addr);
  42:AS7262_psoc4.c **** uint8 I2C_AS7262_Read(uint8 reg_addr);
  43:AS7262_psoc4.c **** uint8 I2C_AS7262_ReadRegister(uint8 reg_addr);
  44:AS7262_psoc4.c **** uint8 I2C_AS7262_Write(uint8 reg_addr, uint8 value);
  45:AS7262_psoc4.c **** uint8 I2C_AS7262_WriteRegister(uint8 reg_addr, uint8 value);
  46:AS7262_psoc4.c **** void AS7262_ReadAllData(void);
  47:AS7262_psoc4.c **** uint8 convert_hex_string(uint8 array[]);
  48:AS7262_psoc4.c **** uint8 hex_value_from_char(uint8 _char);
  49:AS7262_psoc4.c **** uint16 ConvertDecimal(uint8 array[], uint8 len);
  50:AS7262_psoc4.c **** 
  51:AS7262_psoc4.c **** 
  52:AS7262_psoc4.c **** /***************************************
  53:AS7262_psoc4.c **** *      Initialize Structure to save 
  54:AS7262_psoc4.c **** *      settings of AS7262
  55:AS7262_psoc4.c **** ***************************************/
  56:AS7262_psoc4.c **** 
  57:AS7262_psoc4.c **** AS7262_settings as7262 = {
  58:AS7262_psoc4.c ****     .measurement_mode = BANK_MODE_3,
  59:AS7262_psoc4.c ****     .gain = GAIN_SETTING_1X,
  60:AS7262_psoc4.c ****     .interrupt_on = True,
  61:AS7262_psoc4.c ****     .integration_time = 255,
  62:AS7262_psoc4.c ****     .LED_power_level = LED_POWER_12_5_mA,
  63:AS7262_psoc4.c ****     .LED_on = False,
  64:AS7262_psoc4.c ****     .indicator_power_level = INDICATOR_POWER_4_mA,
  65:AS7262_psoc4.c ****     .indicator_on = False
  66:AS7262_psoc4.c **** };
  67:AS7262_psoc4.c **** 
  68:AS7262_psoc4.c **** 
  69:AS7262_psoc4.c **** 
  70:AS7262_psoc4.c **** union CalibratedData {
  71:AS7262_psoc4.c ****     uint8 data_bytes[25];
  72:AS7262_psoc4.c ****     float32 calibrated_data[6];
  73:AS7262_psoc4.c **** };
  74:AS7262_psoc4.c **** 
  75:AS7262_psoc4.c **** union CalibratedData all_calibrated_data;
  76:AS7262_psoc4.c **** 
  77:AS7262_psoc4.c **** float32 color_data[6];
  78:AS7262_psoc4.c **** 
  79:AS7262_psoc4.c **** /******************************************************************************
  80:AS7262_psoc4.c **** * Function Name: AS7262_Init
  81:AS7262_psoc4.c **** *******************************************************************************
  82:AS7262_psoc4.c **** *
  83:AS7262_psoc4.c **** * Summary:
  84:AS7262_psoc4.c **** *  Set up the AS7262 with the default configuration.
  85:AS7262_psoc4.c **** *
  86:AS7262_psoc4.c **** * Return:
  87:AS7262_psoc4.c **** *  true (1) if the AS7262 responds with the correct device type
ARM GAS  C:\Users\Kyle\AppData\Local\Temp\ccoGrmoH.s 			page 3


  88:AS7262_psoc4.c **** *
  89:AS7262_psoc4.c **** * Global variables:
  90:AS7262_psoc4.c **** *  as7262:  strucutre that stores a local copy of all the parameters it is set to
  91:AS7262_psoc4.c **** *
  92:AS7262_psoc4.c **** *******************************************************************************/
  93:AS7262_psoc4.c **** 
  94:AS7262_psoc4.c **** uint8 AS7262_Init(void) {
  95:AS7262_psoc4.c ****     // get the hardware and firmware data and save it to the struct
  96:AS7262_psoc4.c ****     uint8 data = I2C_AS7262_Read(AS726x_REG_DEVICE_TYPE);
  97:AS7262_psoc4.c ****     as7262.device_type = data;
  98:AS7262_psoc4.c ****     data = I2C_AS7262_Read(AS726x_REG_HW_VERSION);
  99:AS7262_psoc4.c ****     as7262.hw_version = data;
 100:AS7262_psoc4.c ****     data = I2C_AS7262_Read(AS726x_REG_FW1_VERSION);
 101:AS7262_psoc4.c ****     as7262.fw_version = ( data << 8 );
 102:AS7262_psoc4.c ****     data = I2C_AS7262_Read(AS726x_REG_FW2_VERSION);
 103:AS7262_psoc4.c ****     as7262.fw_version += data;
 104:AS7262_psoc4.c ****     
 105:AS7262_psoc4.c ****     // update the control,led, and integration time registers to their default starting values
 106:AS7262_psoc4.c ****     update_control_reg_value( &as7262 );
 107:AS7262_psoc4.c ****     update_LED_reg_value( &as7262 );
 108:AS7262_psoc4.c ****     I2C_AS7262_Write(AS726x_REG_INT, as7262.integration_time);
 109:AS7262_psoc4.c ****     
 110:AS7262_psoc4.c ****     // if the device responeded with the correct device type return true to symbolize the device is
 111:AS7262_psoc4.c ****     if ( as7262.device_type == AS7262_DEVICE_TYPE ) {
 112:AS7262_psoc4.c ****         return true;
 113:AS7262_psoc4.c ****     }
 114:AS7262_psoc4.c ****     return false;
 115:AS7262_psoc4.c **** }
 116:AS7262_psoc4.c **** 
 117:AS7262_psoc4.c **** /******************************************************************************
 118:AS7262_psoc4.c **** * Function Name: AS7262_Commands
 119:AS7262_psoc4.c **** *******************************************************************************
 120:AS7262_psoc4.c **** *
 121:AS7262_psoc4.c **** * Summary:
 122:AS7262_psoc4.c **** *  Take in User inputs that deal with the AS7262 and peform the proper action.
 123:AS7262_psoc4.c **** *
 124:AS7262_psoc4.c **** * Parameters:
 125:AS7262_psoc4.c **** *  uint8 buffer: array of the chars the user inputted
 126:AS7262_psoc4.c **** *
 127:AS7262_psoc4.c **** * Global variables:
 128:AS7262_psoc4.c **** *  as7262:  strucutre that stores a local copy of all the parameters it is set to
 129:AS7262_psoc4.c **** *
 130:AS7262_psoc4.c **** *******************************************************************************/
 131:AS7262_psoc4.c **** 
 132:AS7262_psoc4.c **** void AS7262_Commands(uint8 buffer[]) {
 133:AS7262_psoc4.c ****     switch ( buffer[7] ) {
 134:AS7262_psoc4.c ****         case READ_COMMANDS: ;  // a command to read 'READ' data is given, or register commands 'REG
 135:AS7262_psoc4.c ****             if ( buffer[9] == 'G' ) {  // Register read or write
 136:AS7262_psoc4.c ****                 if ( buffer[11] == 'W' ) {  // Write a register value
 137:AS7262_psoc4.c ****                     uint8 reg_to_write = convert_hex_string(&buffer[19]);
 138:AS7262_psoc4.c ****                     uint8 value_to_write = convert_hex_string(&buffer[24]);
 139:AS7262_psoc4.c ****                     I2C_AS7262_Write(reg_to_write, value_to_write);
 140:AS7262_psoc4.c **** //                    LCD_Position(0, 0); 
 141:AS7262_psoc4.c **** //                    sprintf(LCD_str, "R:0x%02x|v:0x%02x  ", reg_to_write, value_to_write);
 142:AS7262_psoc4.c **** //                    LCD_PrintString(LCD_str);
 143:AS7262_psoc4.c **** //                    LCD_Position(1, 0); 
 144:AS7262_psoc4.c **** //                    sprintf(LCD_str, "B:%c|v:%c  ", buffer[24], buffer[25]);
ARM GAS  C:\Users\Kyle\AppData\Local\Temp\ccoGrmoH.s 			page 4


 145:AS7262_psoc4.c **** //                    LCD_PrintString(LCD_str);
 146:AS7262_psoc4.c ****                     
 147:AS7262_psoc4.c ****                 }
 148:AS7262_psoc4.c ****                 else if ( buffer[11] == 'R' ) {  // Read a value from a register
 149:AS7262_psoc4.c ****                     uint8 reg_to_read = convert_hex_string(&buffer[18]);
 150:AS7262_psoc4.c ****                     uint8 reg_value = I2C_AS7262_Read(reg_to_read);
 151:AS7262_psoc4.c ****                     sprintf(USB_str, "REG_VALUE|0x%02X", reg_value);
 152:AS7262_psoc4.c **** //                    LCD_Position(0, 0); 
 153:AS7262_psoc4.c **** //                    sprintf(LCD_str, "RegR:0x%02x|v:0x%02x  ", reg_to_read, reg_value);
 154:AS7262_psoc4.c **** //                    // sprintf(LCD_str, "RegR:0x%d|v:0x%d  ", buffer[18], buffer[19]);
 155:AS7262_psoc4.c **** //                    LCD_PrintString(LCD_str);
 156:AS7262_psoc4.c ****                     USB_Export_Data((uint8*)USB_str, 14);
 157:AS7262_psoc4.c ****                 }
 158:AS7262_psoc4.c ****             }
 159:AS7262_psoc4.c ****             if ( buffer[12] == 'S' ) {  // get a single data point
 160:AS7262_psoc4.c **** //                LCD_Position(0, 0);
 161:AS7262_psoc4.c **** //                LCD_PrintString("Single Read");
 162:AS7262_psoc4.c ****                 // AS7262_SingleRead();
 163:AS7262_psoc4.c ****                 if (  buffer[19] == 'F' ) { 
 164:AS7262_psoc4.c **** //                    LCD_Position(0, 0);
 165:AS7262_psoc4.c **** //                    LCD_PrintString("Sgl Read Fls");
 166:AS7262_psoc4.c **** //                    as7262.LED_on = True;
 167:AS7262_psoc4.c **** //                    update_LED_reg_value( &as7262 );
 168:AS7262_psoc4.c **** //                    AS7262_SingleRead();
 169:AS7262_psoc4.c **** //                    CyDelay(100);
 170:AS7262_psoc4.c **** //                    as7262.LED_on = False;
 171:AS7262_psoc4.c **** //                    update_LED_reg_value( &as7262 );
 172:AS7262_psoc4.c ****                     // turn on LED
 173:AS7262_psoc4.c ****                     uint8 led_reg_hold = as7262.LED_control_reg_value;
 174:AS7262_psoc4.c ****                     uint led_reg_on = led_reg_hold;
 175:AS7262_psoc4.c ****                     led_reg_on |= 0x08;
 176:AS7262_psoc4.c ****                     I2C_AS7262_Write( AS726x_REG_LED, led_reg_on );
 177:AS7262_psoc4.c ****                     
 178:AS7262_psoc4.c ****                     uint8 led_reg = I2C_AS7262_Read( AS726x_REG_LED );
 179:AS7262_psoc4.c ****                     
 180:AS7262_psoc4.c ****                     // run the read
 181:AS7262_psoc4.c ****                     AS7262_SingleRead();
 182:AS7262_psoc4.c ****                     
 183:AS7262_psoc4.c ****                     I2C_AS7262_Write( AS726x_REG_LED, led_reg_hold );
 184:AS7262_psoc4.c **** //                    LCD_Position(0, 0);
 185:AS7262_psoc4.c **** //                    LCD_PrintString("end read ");
 186:AS7262_psoc4.c **** //                    LCD_Position(0, 0);
 187:AS7262_psoc4.c **** //                    sprintf(LCD_str, "L2:0x%02x|0x%02x ", led_reg, led_reg_on);
 188:AS7262_psoc4.c **** //                    LCD_PrintString(LCD_str);
 189:AS7262_psoc4.c ****                     
 190:AS7262_psoc4.c ****                 }
 191:AS7262_psoc4.c ****                 else if ( buffer[19] == 'N' ) { 
 192:AS7262_psoc4.c **** //                    LCD_Position(0, 0);
 193:AS7262_psoc4.c **** //                    LCD_PrintString("Sgl Read No Fls");
 194:AS7262_psoc4.c ****                     AS7262_SingleRead();
 195:AS7262_psoc4.c **** //                    LCD_Position(0, 0);
 196:AS7262_psoc4.c **** //                    LCD_PrintString("SingleRead5  ");
 197:AS7262_psoc4.c ****                 }
 198:AS7262_psoc4.c ****                 
 199:AS7262_psoc4.c ****                 
 200:AS7262_psoc4.c ****             }
 201:AS7262_psoc4.c ****             break;
ARM GAS  C:\Users\Kyle\AppData\Local\Temp\ccoGrmoH.s 			page 5


 202:AS7262_psoc4.c ****         case SET_INTEGRATION_TIME: ; // the command to set the integration time
 203:AS7262_psoc4.c ****             uint8 new_integration_time = ConvertDecimal(&buffer[22],3);
 204:AS7262_psoc4.c ****             as7262.integration_time = new_integration_time;
 205:AS7262_psoc4.c ****             I2C_AS7262_Write( AS726x_REG_INT, as7262.integration_time );
 206:AS7262_psoc4.c ****             break;
 207:AS7262_psoc4.c ****             
 208:AS7262_psoc4.c ****         case SET_GAIN: ; // change the gain setting of the device
 209:AS7262_psoc4.c ****             as7262.gain = ( ConvertDecimal(&buffer[12], 1) & 0x03 );  // only allow values from 0x0
 210:AS7262_psoc4.c ****             update_control_reg_value( &as7262 );
 211:AS7262_psoc4.c ****             
 212:AS7262_psoc4.c ****             break;
 213:AS7262_psoc4.c ****         case SET_LED_POWER: ; // set the current through the main light source
 214:AS7262_psoc4.c ****             as7262.LED_power_level = ( ConvertDecimal(&buffer[19], 1) & 0x03 );  // only allow valu
 215:AS7262_psoc4.c ****             update_LED_reg_value( &as7262 );
 216:AS7262_psoc4.c ****             break;
 217:AS7262_psoc4.c ****         case LED_ON_OFF: ;  //  set if the LED should be on or off
 218:AS7262_psoc4.c ****             if ( (buffer[17] == 'N') || (buffer[17] == 'n') ) {
 219:AS7262_psoc4.c ****                 as7262.LED_on = True;
 220:AS7262_psoc4.c ****             }
 221:AS7262_psoc4.c ****             else if ( (buffer[17] == 'F') || (buffer[17] == 'f') ) {
 222:AS7262_psoc4.c ****                 as7262.LED_on = False;
 223:AS7262_psoc4.c ****             }
 224:AS7262_psoc4.c ****             update_LED_reg_value( &as7262 );
 225:AS7262_psoc4.c ****             break;
 226:AS7262_psoc4.c ****     }
 227:AS7262_psoc4.c **** }
 228:AS7262_psoc4.c **** 
 229:AS7262_psoc4.c **** uint8 update_control_reg_value(AS7262_settings* as7262_ptr) {
 230:AS7262_psoc4.c ****     uint8 control_reg = (as7262_ptr->interrupt_on << 6) | 
 231:AS7262_psoc4.c ****                         (as7262_ptr->gain << 4) | 
 232:AS7262_psoc4.c ****                         (as7262_ptr->measurement_mode << 2);
 233:AS7262_psoc4.c ****     I2C_AS7262_Write( AS726x_REG_CONTROL, control_reg );
 234:AS7262_psoc4.c ****     as7262_ptr->control_reg_value = control_reg;
 235:AS7262_psoc4.c ****     return control_reg;
 236:AS7262_psoc4.c **** }
 237:AS7262_psoc4.c **** 
 238:AS7262_psoc4.c **** uint8 update_LED_reg_value(AS7262_settings* as7262_ptr) {
 239:AS7262_psoc4.c ****     uint8 led_control_reg = (as7262_ptr->LED_power_level << 4) | 
 240:AS7262_psoc4.c ****                             (as7262_ptr->LED_on << 3) | 
 241:AS7262_psoc4.c ****                             (as7262_ptr->indicator_power_level << 1) |
 242:AS7262_psoc4.c ****                             (as7262_ptr->indicator_on);
 243:AS7262_psoc4.c ****     I2C_AS7262_Write( AS726x_REG_LED, led_control_reg );
 244:AS7262_psoc4.c ****     as7262_ptr->LED_control_reg_value = led_control_reg;
 245:AS7262_psoc4.c ****     return led_control_reg;
 246:AS7262_psoc4.c **** }
 247:AS7262_psoc4.c **** 
 248:AS7262_psoc4.c **** 
 249:AS7262_psoc4.c **** void AS7262_SingleRead(void) {
 250:AS7262_psoc4.c ****     // send command to run a single shot read
 251:AS7262_psoc4.c **** //    LCD_ClearDisplay();
 252:AS7262_psoc4.c **** //    LCD_Position(0, 0);
 253:AS7262_psoc4.c **** //    LCD_PrintString("SingleRead  ");
 254:AS7262_psoc4.c ****     I2C_AS7262_Write( AS726x_REG_CONTROL, as7262.control_reg_value );
 255:AS7262_psoc4.c **** //    LCD_Position(0, 0);
 256:AS7262_psoc4.c **** //    LCD_PrintString("SingleRead2  ");
 257:AS7262_psoc4.c ****     uint pre_data = I2C_AS7262_Read( AS726x_REG_CONTROL );
 258:AS7262_psoc4.c **** //    LCD_Position(0, 0);
ARM GAS  C:\Users\Kyle\AppData\Local\Temp\ccoGrmoH.s 			page 6


 259:AS7262_psoc4.c **** //    sprintf(LCD_str, "pre data: 0x%02x ", pre_data);
 260:AS7262_psoc4.c **** //    LCD_PrintString(LCD_str);
 261:AS7262_psoc4.c ****     CyDelay( (5.8 * as7262.integration_time) );
 262:AS7262_psoc4.c ****     uint8 data;
 263:AS7262_psoc4.c ****     uint8 failed_tries=0;
 264:AS7262_psoc4.c ****     do {
 265:AS7262_psoc4.c ****         CyDelay(1);
 266:AS7262_psoc4.c ****         data = I2C_AS7262_Read( AS726x_REG_CONTROL );
 267:AS7262_psoc4.c ****         failed_tries++;
 268:AS7262_psoc4.c ****         if ( failed_tries > 200 ) {
 269:AS7262_psoc4.c ****             USB_Export_Data((uint8*)"FAILED", 6);
 270:AS7262_psoc4.c ****         }
 271:AS7262_psoc4.c ****     } while ( (data & 0x02) == 0x00 );
 272:AS7262_psoc4.c **** //    LCD_Position(1, 0); 
 273:AS7262_psoc4.c **** //    sprintf(LCD_str, "C2:0x%02x|0x%02x  ", data, as7262.control_reg_value);
 274:AS7262_psoc4.c **** //    LCD_PrintString(LCD_str);
 275:AS7262_psoc4.c **** //    isr_as7262_int_StartEx( isr_handler_basic_read );
 276:AS7262_psoc4.c **** //    isr_as7262_pin_StartEx( isr_handler_debug1 );
 277:AS7262_psoc4.c ****     //LED_3_Write( 1 );
 278:AS7262_psoc4.c ****     //CyDelay(1000);
 279:AS7262_psoc4.c ****     AS7262_ReadAllData();
 280:AS7262_psoc4.c **** //    LCD_Position(0, 0);
 281:AS7262_psoc4.c **** //    LCD_PrintString("SingleRead3  ");
 282:AS7262_psoc4.c ****     USB_Export_Data(all_calibrated_data.data_bytes, 25);
 283:AS7262_psoc4.c **** //    LCD_Position(0, 0);
 284:AS7262_psoc4.c **** //    LCD_PrintString("SingleRead4  ");
 285:AS7262_psoc4.c **** }
 286:AS7262_psoc4.c **** 
 287:AS7262_psoc4.c **** void AS7262_ReadAllData(void) {
 288:AS7262_psoc4.c ****     for (uint8 i=0; i < 24; i++ ) {
 289:AS7262_psoc4.c ****         all_calibrated_data.data_bytes[i] = I2C_AS7262_Read(AS7262_DATA_START_ADDR + i);
 290:AS7262_psoc4.c ****     }
 291:AS7262_psoc4.c ****     all_calibrated_data.data_bytes[24] = 0x00;
 292:AS7262_psoc4.c **** //    LCD_Position(0, 0);
 293:AS7262_psoc4.c **** //    sprintf(LCD_str, "C:0x%02x|0x%02x  ", all_calibrated_data.data_bytes[0], all_calibrated_data.
 294:AS7262_psoc4.c **** //    LCD_PrintString(LCD_str);
 295:AS7262_psoc4.c ****     
 296:AS7262_psoc4.c **** }
 297:AS7262_psoc4.c **** 
 298:AS7262_psoc4.c **** 
 299:AS7262_psoc4.c **** uint8 I2C_AS7262_Read(uint8 reg_addr) {
 300:AS7262_psoc4.c ****     uint8 status;
 301:AS7262_psoc4.c **** //    LCD_Position(1, 0); 
 302:AS7262_psoc4.c **** //    LCD_PrintString("read0   ");
 303:AS7262_psoc4.c ****     status = I2C_AS7262_ReadRegister(AS72XX_SLAVE_STATUS_REG);
 304:AS7262_psoc4.c **** //    LCD_Position(1, 0); 
 305:AS7262_psoc4.c **** //    LCD_PrintString("read0b   ");
 306:AS7262_psoc4.c ****     if ( ( status & AS72XX_SLAVE_RX_VALID ) != 0 ) {  // data is trying ready to read, but it was n
 307:AS7262_psoc4.c ****         uint8 data = I2C_AS7262_ReadRegister(reg_addr);
 308:AS7262_psoc4.c ****     }
 309:AS7262_psoc4.c **** //    LCD_Position(1, 0); 
 310:AS7262_psoc4.c **** //    LCD_PrintString("read1   ");
 311:AS7262_psoc4.c **** //    
 312:AS7262_psoc4.c **** //    I2C_AS7262_WriteRegister(AS72XX_SLAVE_WRITE_REG, ( reg_addr | 0x80 ) );
 313:AS7262_psoc4.c ****     
 314:AS7262_psoc4.c ****     // Wait for the write flag to clear
 315:AS7262_psoc4.c ****     while(1) {
ARM GAS  C:\Users\Kyle\AppData\Local\Temp\ccoGrmoH.s 			page 7


 316:AS7262_psoc4.c ****         status = I2C_AS7262_ReadRegister( AS72XX_SLAVE_STATUS_REG );
 317:AS7262_psoc4.c ****         if( ( status & AS72XX_SLAVE_TX_VALID ) == 0 ) {
 318:AS7262_psoc4.c ****             break;
 319:AS7262_psoc4.c ****         }
 320:AS7262_psoc4.c ****         CyDelay(1);
 321:AS7262_psoc4.c ****     }
 322:AS7262_psoc4.c ****     I2C_AS7262_WriteRegister( AS72XX_SLAVE_WRITE_REG, reg_addr );
 323:AS7262_psoc4.c **** //    LCD_Position(1, 0); 
 324:AS7262_psoc4.c **** //    LCD_PrintString("read2   ");
 325:AS7262_psoc4.c ****     // Wait for read flag to be set
 326:AS7262_psoc4.c ****     while(1) {
 327:AS7262_psoc4.c ****         status = I2C_AS7262_ReadRegister(AS72XX_SLAVE_STATUS_REG);
 328:AS7262_psoc4.c ****         // Check if the status register has the data read bit set
 329:AS7262_psoc4.c ****         if ( ( status & AS72XX_SLAVE_RX_VALID ) != 0 ) {  
 330:AS7262_psoc4.c ****             break;
 331:AS7262_psoc4.c ****         }
 332:AS7262_psoc4.c ****         CyDelay(1);
 333:AS7262_psoc4.c **** //        LCD_Position(0, 0); 
 334:AS7262_psoc4.c **** //        sprintf(LCD_str, "Code9: %d", status);
 335:AS7262_psoc4.c **** //        LCD_PrintString(LCD_str);
 336:AS7262_psoc4.c ****     }
 337:AS7262_psoc4.c **** 
 338:AS7262_psoc4.c ****     return I2C_AS7262_ReadRegister(AS72XX_SLAVE_READ_REG);
 339:AS7262_psoc4.c **** }
 340:AS7262_psoc4.c **** 
 341:AS7262_psoc4.c **** uint8 I2C_AS7262_ReadRegister(uint8 reg_addr) {
  28              		.loc 1 341 0
  29              		.cfi_startproc
  30              		@ args = 0, pretend = 0, frame = 0
  31              		@ frame_needed = 0, uses_anonymous_args = 0
  32              	.LVL0:
  33 0000 10B5     		push	{r4, lr}
  34              		.cfi_def_cfa_offset 8
  35              		.cfi_offset 4, -8
  36              		.cfi_offset 14, -4
  37 0002 0200     		movs	r2, r0
 342:AS7262_psoc4.c ****     uint8 status;
 343:AS7262_psoc4.c **** //    LCD_Position(0, 0); 
 344:AS7262_psoc4.c **** //    LCD_PrintString("read00   ");
 345:AS7262_psoc4.c ****     status = sensor_read8(AS7262_ADDRESS, read_buffer, reg_addr, &as7262.comm_error);
  38              		.loc 1 345 0
  39 0004 044C     		ldr	r4, .L2
  40 0006 054B     		ldr	r3, .L2+4
  41 0008 0C33     		adds	r3, r3, #12
  42 000a 2100     		movs	r1, r4
  43 000c 4920     		movs	r0, #73
  44              	.LVL1:
  45 000e FFF7FEFF 		bl	sensor_read8
  46              	.LVL2:
 346:AS7262_psoc4.c **** //    LCD_Position(0, 0); 
 347:AS7262_psoc4.c **** //    LCD_PrintString("read01   ");
 348:AS7262_psoc4.c ****     return read_buffer[0];
  47              		.loc 1 348 0
  48 0012 2078     		ldrb	r0, [r4]
 349:AS7262_psoc4.c **** }
  49              		.loc 1 349 0
  50              		@ sp needed
ARM GAS  C:\Users\Kyle\AppData\Local\Temp\ccoGrmoH.s 			page 8


  51 0014 10BD     		pop	{r4, pc}
  52              	.L3:
  53 0016 C046     		.align	2
  54              	.L2:
  55 0018 00000000 		.word	read_buffer
  56 001c 00000000 		.word	.LANCHOR0
  57              		.cfi_endproc
  58              	.LFE42:
  59              		.size	I2C_AS7262_ReadRegister, .-I2C_AS7262_ReadRegister
  60              		.section	.text.I2C_AS7262_WriteRegister,"ax",%progbits
  61              		.align	2
  62              		.global	I2C_AS7262_WriteRegister
  63              		.code	16
  64              		.thumb_func
  65              		.type	I2C_AS7262_WriteRegister, %function
  66              	I2C_AS7262_WriteRegister:
  67              	.LFB44:
 350:AS7262_psoc4.c **** 
 351:AS7262_psoc4.c **** uint8 I2C_AS7262_Write(uint8 reg_addr, uint8 value) {
 352:AS7262_psoc4.c ****     uint8 status;
 353:AS7262_psoc4.c ****     // Check to see if write buffer is ready
 354:AS7262_psoc4.c ****     while(1) {
 355:AS7262_psoc4.c ****         status = I2C_AS7262_ReadRegister( AS72XX_SLAVE_STATUS_REG );
 356:AS7262_psoc4.c ****         if( ( status & AS72XX_SLAVE_TX_VALID ) == 0 ) {
 357:AS7262_psoc4.c ****             break;  // no data inbound so it can be written to
 358:AS7262_psoc4.c ****         }
 359:AS7262_psoc4.c ****     }
 360:AS7262_psoc4.c ****     // Send the virtual register address and set bit 7 to indicate a pending write
 361:AS7262_psoc4.c ****     I2C_AS7262_WriteRegister( AS72XX_SLAVE_WRITE_REG, ( reg_addr | AS726x_WRITE_REG_MASK ) );
 362:AS7262_psoc4.c ****     // Wait for the write flag to clear
 363:AS7262_psoc4.c ****     while(1) {
 364:AS7262_psoc4.c ****         status = I2C_AS7262_ReadRegister( AS72XX_SLAVE_STATUS_REG );
 365:AS7262_psoc4.c ****         if( ( status & AS72XX_SLAVE_TX_VALID ) == 0 ) {
 366:AS7262_psoc4.c ****             break;  // no data inbound so it can be written to
 367:AS7262_psoc4.c ****         }
 368:AS7262_psoc4.c ****     }
 369:AS7262_psoc4.c ****     
 370:AS7262_psoc4.c ****     return I2C_AS7262_WriteRegister(AS72XX_SLAVE_WRITE_REG, value);
 371:AS7262_psoc4.c **** }
 372:AS7262_psoc4.c **** 
 373:AS7262_psoc4.c **** 
 374:AS7262_psoc4.c **** uint8 I2C_AS7262_WriteRegister(uint8 reg_addr, uint8 value) {
  68              		.loc 1 374 0
  69              		.cfi_startproc
  70              		@ args = 0, pretend = 0, frame = 0
  71              		@ frame_needed = 0, uses_anonymous_args = 0
  72              	.LVL3:
  73 0000 10B5     		push	{r4, lr}
  74              		.cfi_def_cfa_offset 8
  75              		.cfi_offset 4, -8
  76              		.cfi_offset 14, -4
 375:AS7262_psoc4.c ****     uint8 status;
 376:AS7262_psoc4.c ****     write_buffer[0] = reg_addr;
  77              		.loc 1 376 0
  78 0002 044B     		ldr	r3, .L5
  79 0004 1870     		strb	r0, [r3]
 377:AS7262_psoc4.c ****     write_buffer[1] = value;
ARM GAS  C:\Users\Kyle\AppData\Local\Temp\ccoGrmoH.s 			page 9


  80              		.loc 1 377 0
  81 0006 5970     		strb	r1, [r3, #1]
 378:AS7262_psoc4.c ****     return sensor_write8(AS7262_ADDRESS, write_buffer);
  82              		.loc 1 378 0
  83 0008 1900     		movs	r1, r3
  84              	.LVL4:
  85 000a 4920     		movs	r0, #73
  86              	.LVL5:
  87 000c FFF7FEFF 		bl	sensor_write8
  88              	.LVL6:
 379:AS7262_psoc4.c **** }
  89              		.loc 1 379 0
  90              		@ sp needed
  91 0010 10BD     		pop	{r4, pc}
  92              	.L6:
  93 0012 C046     		.align	2
  94              	.L5:
  95 0014 00000000 		.word	write_buffer
  96              		.cfi_endproc
  97              	.LFE44:
  98              		.size	I2C_AS7262_WriteRegister, .-I2C_AS7262_WriteRegister
  99              		.section	.text.I2C_AS7262_Read,"ax",%progbits
 100              		.align	2
 101              		.global	I2C_AS7262_Read
 102              		.code	16
 103              		.thumb_func
 104              		.type	I2C_AS7262_Read, %function
 105              	I2C_AS7262_Read:
 106              	.LFB41:
 299:AS7262_psoc4.c ****     uint8 status;
 107              		.loc 1 299 0
 108              		.cfi_startproc
 109              		@ args = 0, pretend = 0, frame = 0
 110              		@ frame_needed = 0, uses_anonymous_args = 0
 111              	.LVL7:
 112 0000 10B5     		push	{r4, lr}
 113              		.cfi_def_cfa_offset 8
 114              		.cfi_offset 4, -8
 115              		.cfi_offset 14, -4
 116 0002 0400     		movs	r4, r0
 303:AS7262_psoc4.c **** //    LCD_Position(1, 0); 
 117              		.loc 1 303 0
 118 0004 0020     		movs	r0, #0
 119              	.LVL8:
 120 0006 FFF7FEFF 		bl	I2C_AS7262_ReadRegister
 121              	.LVL9:
 306:AS7262_psoc4.c ****         uint8 data = I2C_AS7262_ReadRegister(reg_addr);
 122              		.loc 1 306 0
 123 000a C307     		lsls	r3, r0, #31
 124 000c 02D5     		bpl	.L10
 125              	.LBB2:
 307:AS7262_psoc4.c ****     }
 126              		.loc 1 307 0
 127 000e 2000     		movs	r0, r4
 128              	.LVL10:
 129 0010 FFF7FEFF 		bl	I2C_AS7262_ReadRegister
 130              	.LVL11:
ARM GAS  C:\Users\Kyle\AppData\Local\Temp\ccoGrmoH.s 			page 10


 131              	.L10:
 132              	.LBE2:
 316:AS7262_psoc4.c ****         if( ( status & AS72XX_SLAVE_TX_VALID ) == 0 ) {
 133              		.loc 1 316 0
 134 0014 0020     		movs	r0, #0
 135 0016 FFF7FEFF 		bl	I2C_AS7262_ReadRegister
 136              	.LVL12:
 317:AS7262_psoc4.c ****             break;
 137              		.loc 1 317 0
 138 001a 8307     		lsls	r3, r0, #30
 139 001c 03D5     		bpl	.L9
 320:AS7262_psoc4.c ****     }
 140              		.loc 1 320 0
 141 001e 0120     		movs	r0, #1
 142              	.LVL13:
 143 0020 FFF7FEFF 		bl	CyDelay
 144              	.LVL14:
 321:AS7262_psoc4.c ****     I2C_AS7262_WriteRegister( AS72XX_SLAVE_WRITE_REG, reg_addr );
 145              		.loc 1 321 0
 146 0024 F6E7     		b	.L10
 147              	.LVL15:
 148              	.L9:
 322:AS7262_psoc4.c **** //    LCD_Position(1, 0); 
 149              		.loc 1 322 0
 150 0026 2100     		movs	r1, r4
 151 0028 0120     		movs	r0, #1
 152              	.LVL16:
 153 002a FFF7FEFF 		bl	I2C_AS7262_WriteRegister
 154              	.LVL17:
 155              	.L12:
 327:AS7262_psoc4.c ****         // Check if the status register has the data read bit set
 156              		.loc 1 327 0
 157 002e 0020     		movs	r0, #0
 158 0030 FFF7FEFF 		bl	I2C_AS7262_ReadRegister
 159              	.LVL18:
 329:AS7262_psoc4.c ****             break;
 160              		.loc 1 329 0
 161 0034 C307     		lsls	r3, r0, #31
 162 0036 03D4     		bmi	.L11
 332:AS7262_psoc4.c **** //        LCD_Position(0, 0); 
 163              		.loc 1 332 0
 164 0038 0120     		movs	r0, #1
 165              	.LVL19:
 166 003a FFF7FEFF 		bl	CyDelay
 167              	.LVL20:
 336:AS7262_psoc4.c **** 
 168              		.loc 1 336 0
 169 003e F6E7     		b	.L12
 170              	.LVL21:
 171              	.L11:
 338:AS7262_psoc4.c **** }
 172              		.loc 1 338 0
 173 0040 0220     		movs	r0, #2
 174              	.LVL22:
 175 0042 FFF7FEFF 		bl	I2C_AS7262_ReadRegister
 176              	.LVL23:
 339:AS7262_psoc4.c **** 
ARM GAS  C:\Users\Kyle\AppData\Local\Temp\ccoGrmoH.s 			page 11


 177              		.loc 1 339 0
 178              		@ sp needed
 179 0046 10BD     		pop	{r4, pc}
 180              		.cfi_endproc
 181              	.LFE41:
 182              		.size	I2C_AS7262_Read, .-I2C_AS7262_Read
 183              		.section	.text.AS7262_ReadAllData,"ax",%progbits
 184              		.align	2
 185              		.global	AS7262_ReadAllData
 186              		.code	16
 187              		.thumb_func
 188              		.type	AS7262_ReadAllData, %function
 189              	AS7262_ReadAllData:
 190              	.LFB40:
 287:AS7262_psoc4.c ****     for (uint8 i=0; i < 24; i++ ) {
 191              		.loc 1 287 0
 192              		.cfi_startproc
 193              		@ args = 0, pretend = 0, frame = 0
 194              		@ frame_needed = 0, uses_anonymous_args = 0
 195 0000 10B5     		push	{r4, lr}
 196              		.cfi_def_cfa_offset 8
 197              		.cfi_offset 4, -8
 198              		.cfi_offset 14, -4
 199              	.LVL24:
 200              	.LBB3:
 288:AS7262_psoc4.c ****         all_calibrated_data.data_bytes[i] = I2C_AS7262_Read(AS7262_DATA_START_ADDR + i);
 201              		.loc 1 288 0
 202 0002 0024     		movs	r4, #0
 203 0004 08E0     		b	.L14
 204              	.LVL25:
 205              	.L15:
 289:AS7262_psoc4.c ****     }
 206              		.loc 1 289 0 discriminator 3
 207 0006 2000     		movs	r0, r4
 208 0008 1430     		adds	r0, r0, #20
 209 000a C0B2     		uxtb	r0, r0
 210 000c FFF7FEFF 		bl	I2C_AS7262_Read
 211              	.LVL26:
 212 0010 044B     		ldr	r3, .L16
 213 0012 1855     		strb	r0, [r3, r4]
 288:AS7262_psoc4.c ****         all_calibrated_data.data_bytes[i] = I2C_AS7262_Read(AS7262_DATA_START_ADDR + i);
 214              		.loc 1 288 0 discriminator 3
 215 0014 0134     		adds	r4, r4, #1
 216              	.LVL27:
 217 0016 E4B2     		uxtb	r4, r4
 218              	.LVL28:
 219              	.L14:
 288:AS7262_psoc4.c ****         all_calibrated_data.data_bytes[i] = I2C_AS7262_Read(AS7262_DATA_START_ADDR + i);
 220              		.loc 1 288 0 is_stmt 0 discriminator 1
 221 0018 172C     		cmp	r4, #23
 222 001a F4D9     		bls	.L15
 223              	.LBE3:
 291:AS7262_psoc4.c **** //    LCD_Position(0, 0);
 224              		.loc 1 291 0 is_stmt 1
 225 001c 0022     		movs	r2, #0
 226 001e 014B     		ldr	r3, .L16
 227 0020 1A76     		strb	r2, [r3, #24]
ARM GAS  C:\Users\Kyle\AppData\Local\Temp\ccoGrmoH.s 			page 12


 296:AS7262_psoc4.c **** 
 228              		.loc 1 296 0
 229              		@ sp needed
 230              	.LVL29:
 231 0022 10BD     		pop	{r4, pc}
 232              	.L17:
 233              		.align	2
 234              	.L16:
 235 0024 00000000 		.word	all_calibrated_data
 236              		.cfi_endproc
 237              	.LFE40:
 238              		.size	AS7262_ReadAllData, .-AS7262_ReadAllData
 239              		.section	.text.I2C_AS7262_Write,"ax",%progbits
 240              		.align	2
 241              		.global	I2C_AS7262_Write
 242              		.code	16
 243              		.thumb_func
 244              		.type	I2C_AS7262_Write, %function
 245              	I2C_AS7262_Write:
 246              	.LFB43:
 351:AS7262_psoc4.c ****     uint8 status;
 247              		.loc 1 351 0
 248              		.cfi_startproc
 249              		@ args = 0, pretend = 0, frame = 0
 250              		@ frame_needed = 0, uses_anonymous_args = 0
 251              	.LVL30:
 252 0000 70B5     		push	{r4, r5, r6, lr}
 253              		.cfi_def_cfa_offset 16
 254              		.cfi_offset 4, -16
 255              		.cfi_offset 5, -12
 256              		.cfi_offset 6, -8
 257              		.cfi_offset 14, -4
 258 0002 0400     		movs	r4, r0
 259 0004 0D00     		movs	r5, r1
 260              	.LVL31:
 261              	.L19:
 355:AS7262_psoc4.c ****         if( ( status & AS72XX_SLAVE_TX_VALID ) == 0 ) {
 262              		.loc 1 355 0
 263 0006 0020     		movs	r0, #0
 264 0008 FFF7FEFF 		bl	I2C_AS7262_ReadRegister
 265              	.LVL32:
 356:AS7262_psoc4.c ****             break;  // no data inbound so it can be written to
 266              		.loc 1 356 0
 267 000c 8307     		lsls	r3, r0, #30
 268 000e FAD4     		bmi	.L19
 361:AS7262_psoc4.c ****     // Wait for the write flag to clear
 269              		.loc 1 361 0
 270 0010 8021     		movs	r1, #128
 271 0012 4942     		rsbs	r1, r1, #0
 272 0014 0C43     		orrs	r4, r1
 273 0016 E1B2     		uxtb	r1, r4
 274 0018 0120     		movs	r0, #1
 275              	.LVL33:
 276 001a FFF7FEFF 		bl	I2C_AS7262_WriteRegister
 277              	.LVL34:
 278              	.L20:
 364:AS7262_psoc4.c ****         if( ( status & AS72XX_SLAVE_TX_VALID ) == 0 ) {
ARM GAS  C:\Users\Kyle\AppData\Local\Temp\ccoGrmoH.s 			page 13


 279              		.loc 1 364 0
 280 001e 0020     		movs	r0, #0
 281 0020 FFF7FEFF 		bl	I2C_AS7262_ReadRegister
 282              	.LVL35:
 365:AS7262_psoc4.c ****             break;  // no data inbound so it can be written to
 283              		.loc 1 365 0
 284 0024 8307     		lsls	r3, r0, #30
 285 0026 FAD4     		bmi	.L20
 370:AS7262_psoc4.c **** }
 286              		.loc 1 370 0
 287 0028 2900     		movs	r1, r5
 288 002a 0120     		movs	r0, #1
 289              	.LVL36:
 290 002c FFF7FEFF 		bl	I2C_AS7262_WriteRegister
 291              	.LVL37:
 371:AS7262_psoc4.c **** 
 292              		.loc 1 371 0
 293              		@ sp needed
 294 0030 70BD     		pop	{r4, r5, r6, pc}
 295              		.cfi_endproc
 296              	.LFE43:
 297              		.size	I2C_AS7262_Write, .-I2C_AS7262_Write
 298 0032 C046     		.section	.text.update_control_reg_value,"ax",%progbits
 299              		.align	2
 300              		.global	update_control_reg_value
 301              		.code	16
 302              		.thumb_func
 303              		.type	update_control_reg_value, %function
 304              	update_control_reg_value:
 305              	.LFB37:
 229:AS7262_psoc4.c ****     uint8 control_reg = (as7262_ptr->interrupt_on << 6) | 
 306              		.loc 1 229 0
 307              		.cfi_startproc
 308              		@ args = 0, pretend = 0, frame = 0
 309              		@ frame_needed = 0, uses_anonymous_args = 0
 310              	.LVL38:
 311 0000 70B5     		push	{r4, r5, r6, lr}
 312              		.cfi_def_cfa_offset 16
 313              		.cfi_offset 4, -16
 314              		.cfi_offset 5, -12
 315              		.cfi_offset 6, -8
 316              		.cfi_offset 14, -4
 317 0002 0500     		movs	r5, r0
 230:AS7262_psoc4.c ****                         (as7262_ptr->gain << 4) | 
 318              		.loc 1 230 0
 319 0004 8478     		ldrb	r4, [r0, #2]
 320 0006 A401     		lsls	r4, r4, #6
 231:AS7262_psoc4.c ****                         (as7262_ptr->measurement_mode << 2);
 321              		.loc 1 231 0
 322 0008 4278     		ldrb	r2, [r0, #1]
 323 000a 1201     		lsls	r2, r2, #4
 232:AS7262_psoc4.c ****     I2C_AS7262_Write( AS726x_REG_CONTROL, control_reg );
 324              		.loc 1 232 0
 325 000c 0378     		ldrb	r3, [r0]
 326 000e 9B00     		lsls	r3, r3, #2
 230:AS7262_psoc4.c ****                         (as7262_ptr->gain << 4) | 
 327              		.loc 1 230 0
ARM GAS  C:\Users\Kyle\AppData\Local\Temp\ccoGrmoH.s 			page 14


 328 0010 1443     		orrs	r4, r2
 329 0012 1C43     		orrs	r4, r3
 330 0014 E4B2     		uxtb	r4, r4
 331              	.LVL39:
 233:AS7262_psoc4.c ****     as7262_ptr->control_reg_value = control_reg;
 332              		.loc 1 233 0
 333 0016 2100     		movs	r1, r4
 334 0018 0420     		movs	r0, #4
 335              	.LVL40:
 336 001a FFF7FEFF 		bl	I2C_AS7262_Write
 337              	.LVL41:
 234:AS7262_psoc4.c ****     return control_reg;
 338              		.loc 1 234 0
 339 001e 2C74     		strb	r4, [r5, #16]
 236:AS7262_psoc4.c **** 
 340              		.loc 1 236 0
 341 0020 2000     		movs	r0, r4
 342              		@ sp needed
 343              	.LVL42:
 344              	.LVL43:
 345 0022 70BD     		pop	{r4, r5, r6, pc}
 346              		.cfi_endproc
 347              	.LFE37:
 348              		.size	update_control_reg_value, .-update_control_reg_value
 349              		.section	.text.update_LED_reg_value,"ax",%progbits
 350              		.align	2
 351              		.global	update_LED_reg_value
 352              		.code	16
 353              		.thumb_func
 354              		.type	update_LED_reg_value, %function
 355              	update_LED_reg_value:
 356              	.LFB38:
 238:AS7262_psoc4.c ****     uint8 led_control_reg = (as7262_ptr->LED_power_level << 4) | 
 357              		.loc 1 238 0
 358              		.cfi_startproc
 359              		@ args = 0, pretend = 0, frame = 0
 360              		@ frame_needed = 0, uses_anonymous_args = 0
 361              	.LVL44:
 362 0000 70B5     		push	{r4, r5, r6, lr}
 363              		.cfi_def_cfa_offset 16
 364              		.cfi_offset 4, -16
 365              		.cfi_offset 5, -12
 366              		.cfi_offset 6, -8
 367              		.cfi_offset 14, -4
 368 0002 0500     		movs	r5, r0
 239:AS7262_psoc4.c ****                             (as7262_ptr->LED_on << 3) | 
 369              		.loc 1 239 0
 370 0004 0479     		ldrb	r4, [r0, #4]
 371 0006 2401     		lsls	r4, r4, #4
 240:AS7262_psoc4.c ****                             (as7262_ptr->indicator_power_level << 1) |
 372              		.loc 1 240 0
 373 0008 4179     		ldrb	r1, [r0, #5]
 374 000a C900     		lsls	r1, r1, #3
 241:AS7262_psoc4.c ****                             (as7262_ptr->indicator_on);
 375              		.loc 1 241 0
 376 000c 8279     		ldrb	r2, [r0, #6]
 377 000e 5200     		lsls	r2, r2, #1
ARM GAS  C:\Users\Kyle\AppData\Local\Temp\ccoGrmoH.s 			page 15


 242:AS7262_psoc4.c ****     I2C_AS7262_Write( AS726x_REG_LED, led_control_reg );
 378              		.loc 1 242 0
 379 0010 C379     		ldrb	r3, [r0, #7]
 239:AS7262_psoc4.c ****                             (as7262_ptr->LED_on << 3) | 
 380              		.loc 1 239 0
 381 0012 0C43     		orrs	r4, r1
 382 0014 1443     		orrs	r4, r2
 383 0016 1C43     		orrs	r4, r3
 384 0018 E4B2     		uxtb	r4, r4
 385              	.LVL45:
 243:AS7262_psoc4.c ****     as7262_ptr->LED_control_reg_value = led_control_reg;
 386              		.loc 1 243 0
 387 001a 2100     		movs	r1, r4
 388 001c 0720     		movs	r0, #7
 389              	.LVL46:
 390 001e FFF7FEFF 		bl	I2C_AS7262_Write
 391              	.LVL47:
 244:AS7262_psoc4.c ****     return led_control_reg;
 392              		.loc 1 244 0
 393 0022 6C74     		strb	r4, [r5, #17]
 246:AS7262_psoc4.c **** 
 394              		.loc 1 246 0
 395 0024 2000     		movs	r0, r4
 396              		@ sp needed
 397              	.LVL48:
 398              	.LVL49:
 399 0026 70BD     		pop	{r4, r5, r6, pc}
 400              		.cfi_endproc
 401              	.LFE38:
 402              		.size	update_LED_reg_value, .-update_LED_reg_value
 403              		.section	.text.AS7262_Init,"ax",%progbits
 404              		.align	2
 405              		.global	AS7262_Init
 406              		.code	16
 407              		.thumb_func
 408              		.type	AS7262_Init, %function
 409              	AS7262_Init:
 410              	.LFB35:
  94:AS7262_psoc4.c ****     // get the hardware and firmware data and save it to the struct
 411              		.loc 1 94 0
 412              		.cfi_startproc
 413              		@ args = 0, pretend = 0, frame = 0
 414              		@ frame_needed = 0, uses_anonymous_args = 0
 415 0000 10B5     		push	{r4, lr}
 416              		.cfi_def_cfa_offset 8
 417              		.cfi_offset 4, -8
 418              		.cfi_offset 14, -4
  96:AS7262_psoc4.c ****     as7262.device_type = data;
 419              		.loc 1 96 0
 420 0002 0020     		movs	r0, #0
 421 0004 FFF7FEFF 		bl	I2C_AS7262_Read
 422              	.LVL50:
  97:AS7262_psoc4.c ****     data = I2C_AS7262_Read(AS726x_REG_HW_VERSION);
 423              		.loc 1 97 0
 424 0008 104C     		ldr	r4, .L26
 425 000a 2072     		strb	r0, [r4, #8]
  98:AS7262_psoc4.c ****     as7262.hw_version = data;
ARM GAS  C:\Users\Kyle\AppData\Local\Temp\ccoGrmoH.s 			page 16


 426              		.loc 1 98 0
 427 000c 0120     		movs	r0, #1
 428              	.LVL51:
 429 000e FFF7FEFF 		bl	I2C_AS7262_Read
 430              	.LVL52:
  99:AS7262_psoc4.c ****     data = I2C_AS7262_Read(AS726x_REG_FW1_VERSION);
 431              		.loc 1 99 0
 432 0012 6072     		strb	r0, [r4, #9]
 100:AS7262_psoc4.c ****     as7262.fw_version = ( data << 8 );
 433              		.loc 1 100 0
 434 0014 0220     		movs	r0, #2
 435              	.LVL53:
 436 0016 FFF7FEFF 		bl	I2C_AS7262_Read
 437              	.LVL54:
 101:AS7262_psoc4.c ****     data = I2C_AS7262_Read(AS726x_REG_FW2_VERSION);
 438              		.loc 1 101 0
 439 001a 0002     		lsls	r0, r0, #8
 440              	.LVL55:
 441 001c 6081     		strh	r0, [r4, #10]
 102:AS7262_psoc4.c ****     as7262.fw_version += data;
 442              		.loc 1 102 0
 443 001e 0320     		movs	r0, #3
 444 0020 FFF7FEFF 		bl	I2C_AS7262_Read
 445              	.LVL56:
 103:AS7262_psoc4.c ****     
 446              		.loc 1 103 0
 447 0024 6389     		ldrh	r3, [r4, #10]
 448 0026 1818     		adds	r0, r3, r0
 449              	.LVL57:
 450 0028 6081     		strh	r0, [r4, #10]
 106:AS7262_psoc4.c ****     update_LED_reg_value( &as7262 );
 451              		.loc 1 106 0
 452 002a 2000     		movs	r0, r4
 453 002c FFF7FEFF 		bl	update_control_reg_value
 454              	.LVL58:
 107:AS7262_psoc4.c ****     I2C_AS7262_Write(AS726x_REG_INT, as7262.integration_time);
 455              		.loc 1 107 0
 456 0030 2000     		movs	r0, r4
 457 0032 FFF7FEFF 		bl	update_LED_reg_value
 458              	.LVL59:
 108:AS7262_psoc4.c ****     
 459              		.loc 1 108 0
 460 0036 E178     		ldrb	r1, [r4, #3]
 461 0038 0520     		movs	r0, #5
 462 003a FFF7FEFF 		bl	I2C_AS7262_Write
 463              	.LVL60:
 111:AS7262_psoc4.c ****         return true;
 464              		.loc 1 111 0
 465 003e 237A     		ldrb	r3, [r4, #8]
 466 0040 402B     		cmp	r3, #64
 467 0042 01D1     		bne	.L25
 112:AS7262_psoc4.c ****     }
 468              		.loc 1 112 0
 469 0044 0120     		movs	r0, #1
 470 0046 00E0     		b	.L24
 471              	.L25:
 114:AS7262_psoc4.c **** }
ARM GAS  C:\Users\Kyle\AppData\Local\Temp\ccoGrmoH.s 			page 17


 472              		.loc 1 114 0
 473 0048 0020     		movs	r0, #0
 474              	.L24:
 115:AS7262_psoc4.c **** 
 475              		.loc 1 115 0
 476              		@ sp needed
 477 004a 10BD     		pop	{r4, pc}
 478              	.L27:
 479              		.align	2
 480              	.L26:
 481 004c 00000000 		.word	.LANCHOR0
 482              		.cfi_endproc
 483              	.LFE35:
 484              		.size	AS7262_Init, .-AS7262_Init
 485              		.global	__aeabi_i2d
 486              		.global	__aeabi_dmul
 487              		.global	__aeabi_d2uiz
 488              		.section	.text.AS7262_SingleRead,"ax",%progbits
 489              		.align	2
 490              		.global	AS7262_SingleRead
 491              		.code	16
 492              		.thumb_func
 493              		.type	AS7262_SingleRead, %function
 494              	AS7262_SingleRead:
 495              	.LFB39:
 249:AS7262_psoc4.c ****     // send command to run a single shot read
 496              		.loc 1 249 0
 497              		.cfi_startproc
 498              		@ args = 0, pretend = 0, frame = 0
 499              		@ frame_needed = 0, uses_anonymous_args = 0
 500 0000 70B5     		push	{r4, r5, r6, lr}
 501              		.cfi_def_cfa_offset 16
 502              		.cfi_offset 4, -16
 503              		.cfi_offset 5, -12
 504              		.cfi_offset 6, -8
 505              		.cfi_offset 14, -4
 254:AS7262_psoc4.c **** //    LCD_Position(0, 0);
 506              		.loc 1 254 0
 507 0002 164C     		ldr	r4, .L31
 508 0004 217C     		ldrb	r1, [r4, #16]
 509 0006 0420     		movs	r0, #4
 510 0008 FFF7FEFF 		bl	I2C_AS7262_Write
 511              	.LVL61:
 257:AS7262_psoc4.c **** //    LCD_Position(0, 0);
 512              		.loc 1 257 0
 513 000c 0420     		movs	r0, #4
 514 000e FFF7FEFF 		bl	I2C_AS7262_Read
 515              	.LVL62:
 261:AS7262_psoc4.c ****     uint8 data;
 516              		.loc 1 261 0
 517 0012 E078     		ldrb	r0, [r4, #3]
 518 0014 FFF7FEFF 		bl	__aeabi_i2d
 519              	.LVL63:
 520 0018 114A     		ldr	r2, .L31+4
 521 001a 124B     		ldr	r3, .L31+8
 522 001c FFF7FEFF 		bl	__aeabi_dmul
 523              	.LVL64:
ARM GAS  C:\Users\Kyle\AppData\Local\Temp\ccoGrmoH.s 			page 18


 524 0020 FFF7FEFF 		bl	__aeabi_d2uiz
 525              	.LVL65:
 526 0024 FFF7FEFF 		bl	CyDelay
 527              	.LVL66:
 263:AS7262_psoc4.c ****     do {
 528              		.loc 1 263 0
 529 0028 0024     		movs	r4, #0
 530              	.LVL67:
 531              	.L30:
 265:AS7262_psoc4.c ****         data = I2C_AS7262_Read( AS726x_REG_CONTROL );
 532              		.loc 1 265 0
 533 002a 0120     		movs	r0, #1
 534 002c FFF7FEFF 		bl	CyDelay
 535              	.LVL68:
 266:AS7262_psoc4.c ****         failed_tries++;
 536              		.loc 1 266 0
 537 0030 0420     		movs	r0, #4
 538 0032 FFF7FEFF 		bl	I2C_AS7262_Read
 539              	.LVL69:
 540 0036 0500     		movs	r5, r0
 541              	.LVL70:
 267:AS7262_psoc4.c ****         if ( failed_tries > 200 ) {
 542              		.loc 1 267 0
 543 0038 0134     		adds	r4, r4, #1
 544              	.LVL71:
 545 003a E4B2     		uxtb	r4, r4
 546              	.LVL72:
 268:AS7262_psoc4.c ****             USB_Export_Data((uint8*)"FAILED", 6);
 547              		.loc 1 268 0
 548 003c C82C     		cmp	r4, #200
 549 003e 03D9     		bls	.L29
 269:AS7262_psoc4.c ****         }
 550              		.loc 1 269 0
 551 0040 0621     		movs	r1, #6
 552 0042 0948     		ldr	r0, .L31+12
 553 0044 FFF7FEFF 		bl	USB_Export_Data
 554              	.LVL73:
 555              	.L29:
 271:AS7262_psoc4.c **** //    LCD_Position(1, 0); 
 556              		.loc 1 271 0
 557 0048 AB07     		lsls	r3, r5, #30
 558 004a EED5     		bpl	.L30
 279:AS7262_psoc4.c **** //    LCD_Position(0, 0);
 559              		.loc 1 279 0
 560 004c FFF7FEFF 		bl	AS7262_ReadAllData
 561              	.LVL74:
 282:AS7262_psoc4.c **** //    LCD_Position(0, 0);
 562              		.loc 1 282 0
 563 0050 1921     		movs	r1, #25
 564 0052 0648     		ldr	r0, .L31+16
 565 0054 FFF7FEFF 		bl	USB_Export_Data
 566              	.LVL75:
 285:AS7262_psoc4.c **** 
 567              		.loc 1 285 0
 568              		@ sp needed
 569              	.LVL76:
 570              	.LVL77:
ARM GAS  C:\Users\Kyle\AppData\Local\Temp\ccoGrmoH.s 			page 19


 571 0058 70BD     		pop	{r4, r5, r6, pc}
 572              	.L32:
 573 005a C046     		.align	2
 574              	.L31:
 575 005c 00000000 		.word	.LANCHOR0
 576 0060 33333333 		.word	858993459
 577 0064 33331740 		.word	1075262259
 578 0068 00000000 		.word	.LC6
 579 006c 00000000 		.word	all_calibrated_data
 580              		.cfi_endproc
 581              	.LFE39:
 582              		.size	AS7262_SingleRead, .-AS7262_SingleRead
 583              		.section	.text.hex_value_from_char,"ax",%progbits
 584              		.align	2
 585              		.global	hex_value_from_char
 586              		.code	16
 587              		.thumb_func
 588              		.type	hex_value_from_char, %function
 589              	hex_value_from_char:
 590              	.LFB46:
 380:AS7262_psoc4.c **** 
 381:AS7262_psoc4.c **** uint8 convert_hex_string(uint8 array[]) {
 382:AS7262_psoc4.c ****     uint8 num = hex_value_from_char(array[0]) << 4;
 383:AS7262_psoc4.c ****     num |= hex_value_from_char(array[1]);
 384:AS7262_psoc4.c ****     return num;
 385:AS7262_psoc4.c ****     
 386:AS7262_psoc4.c **** }
 387:AS7262_psoc4.c **** 
 388:AS7262_psoc4.c **** uint8 hex_value_from_char(uint8 _char) {
 591              		.loc 1 388 0
 592              		.cfi_startproc
 593              		@ args = 0, pretend = 0, frame = 0
 594              		@ frame_needed = 0, uses_anonymous_args = 0
 595              		@ link register save eliminated.
 596              	.LVL78:
 389:AS7262_psoc4.c ****     if ( ('0' <= _char) && (_char <= '9') ) {  // char is between 0-9
 597              		.loc 1 389 0
 598 0000 0300     		movs	r3, r0
 599 0002 303B     		subs	r3, r3, #48
 600 0004 DBB2     		uxtb	r3, r3
 601 0006 092B     		cmp	r3, #9
 602 0008 10D9     		bls	.L34
 390:AS7262_psoc4.c ****         return (_char - '0');
 391:AS7262_psoc4.c ****     }
 392:AS7262_psoc4.c ****     else if ( ('A' <= _char) && (_char <= 'F') ) {  // char is between A-F
 603              		.loc 1 392 0
 604 000a 0300     		movs	r3, r0
 605 000c 413B     		subs	r3, r3, #65
 606 000e DBB2     		uxtb	r3, r3
 607 0010 052B     		cmp	r3, #5
 608 0012 02D8     		bhi	.L35
 393:AS7262_psoc4.c ****         return (10 + _char - 'A');
 609              		.loc 1 393 0
 610 0014 3738     		subs	r0, r0, #55
 611              	.LVL79:
 612 0016 C3B2     		uxtb	r3, r0
 613 0018 08E0     		b	.L34
ARM GAS  C:\Users\Kyle\AppData\Local\Temp\ccoGrmoH.s 			page 20


 614              	.LVL80:
 615              	.L35:
 394:AS7262_psoc4.c ****     }
 395:AS7262_psoc4.c ****     else if ( ('a' <= _char) && (_char <= 'f') ) {  // char is between a-f
 616              		.loc 1 395 0
 617 001a 0300     		movs	r3, r0
 618 001c 613B     		subs	r3, r3, #97
 619 001e DBB2     		uxtb	r3, r3
 620 0020 052B     		cmp	r3, #5
 621 0022 02D8     		bhi	.L36
 396:AS7262_psoc4.c ****         return (10 + _char - 'a');
 622              		.loc 1 396 0
 623 0024 5738     		subs	r0, r0, #87
 624              	.LVL81:
 625 0026 C3B2     		uxtb	r3, r0
 626 0028 00E0     		b	.L34
 627              	.LVL82:
 628              	.L36:
 397:AS7262_psoc4.c ****     }
 398:AS7262_psoc4.c ****     return 0;
 629              		.loc 1 398 0
 630 002a 0023     		movs	r3, #0
 631              	.LVL83:
 632              	.L34:
 399:AS7262_psoc4.c **** }
 633              		.loc 1 399 0
 634 002c 1800     		movs	r0, r3
 635              		@ sp needed
 636 002e 7047     		bx	lr
 637              		.cfi_endproc
 638              	.LFE46:
 639              		.size	hex_value_from_char, .-hex_value_from_char
 640              		.section	.text.convert_hex_string,"ax",%progbits
 641              		.align	2
 642              		.global	convert_hex_string
 643              		.code	16
 644              		.thumb_func
 645              		.type	convert_hex_string, %function
 646              	convert_hex_string:
 647              	.LFB45:
 381:AS7262_psoc4.c ****     uint8 num = hex_value_from_char(array[0]) << 4;
 648              		.loc 1 381 0
 649              		.cfi_startproc
 650              		@ args = 0, pretend = 0, frame = 0
 651              		@ frame_needed = 0, uses_anonymous_args = 0
 652              	.LVL84:
 653 0000 70B5     		push	{r4, r5, r6, lr}
 654              		.cfi_def_cfa_offset 16
 655              		.cfi_offset 4, -16
 656              		.cfi_offset 5, -12
 657              		.cfi_offset 6, -8
 658              		.cfi_offset 14, -4
 659 0002 0500     		movs	r5, r0
 382:AS7262_psoc4.c ****     num |= hex_value_from_char(array[1]);
 660              		.loc 1 382 0
 661 0004 0078     		ldrb	r0, [r0]
 662              	.LVL85:
ARM GAS  C:\Users\Kyle\AppData\Local\Temp\ccoGrmoH.s 			page 21


 663 0006 FFF7FEFF 		bl	hex_value_from_char
 664              	.LVL86:
 665 000a 0001     		lsls	r0, r0, #4
 666 000c C4B2     		uxtb	r4, r0
 667              	.LVL87:
 383:AS7262_psoc4.c ****     return num;
 668              		.loc 1 383 0
 669 000e 6878     		ldrb	r0, [r5, #1]
 670 0010 FFF7FEFF 		bl	hex_value_from_char
 671              	.LVL88:
 672 0014 2043     		orrs	r0, r4
 673 0016 C0B2     		uxtb	r0, r0
 674              	.LVL89:
 386:AS7262_psoc4.c **** 
 675              		.loc 1 386 0
 676              		@ sp needed
 677              	.LVL90:
 678 0018 70BD     		pop	{r4, r5, r6, pc}
 679              		.cfi_endproc
 680              	.LFE45:
 681              		.size	convert_hex_string, .-convert_hex_string
 682 001a C046     		.section	.text.ConvertDecimal,"ax",%progbits
 683              		.align	2
 684              		.global	ConvertDecimal
 685              		.code	16
 686              		.thumb_func
 687              		.type	ConvertDecimal, %function
 688              	ConvertDecimal:
 689              	.LFB47:
 400:AS7262_psoc4.c **** 
 401:AS7262_psoc4.c **** uint16 ConvertDecimal(uint8 array[], uint8 len) {
 690              		.loc 1 401 0
 691              		.cfi_startproc
 692              		@ args = 0, pretend = 0, frame = 0
 693              		@ frame_needed = 0, uses_anonymous_args = 0
 694              	.LVL91:
 695 0000 70B5     		push	{r4, r5, r6, lr}
 696              		.cfi_def_cfa_offset 16
 697              		.cfi_offset 4, -16
 698              		.cfi_offset 5, -12
 699              		.cfi_offset 6, -8
 700              		.cfi_offset 14, -4
 701 0002 0600     		movs	r6, r0
 702              	.LVL92:
 703              	.LBB4:
 402:AS7262_psoc4.c ****     uint16 num = 0;
 403:AS7262_psoc4.c ****     for (int i = 0; i < len; i++){
 704              		.loc 1 403 0
 705 0004 0025     		movs	r5, #0
 706              	.LBE4:
 402:AS7262_psoc4.c ****     uint16 num = 0;
 707              		.loc 1 402 0
 708 0006 0020     		movs	r0, #0
 709              	.LVL93:
 710              	.LBB5:
 711              		.loc 1 403 0
 712 0008 08E0     		b	.L39
ARM GAS  C:\Users\Kyle\AppData\Local\Temp\ccoGrmoH.s 			page 22


 713              	.LVL94:
 714              	.L40:
 404:AS7262_psoc4.c ****         num = num * 10 + (array[i] - '0');
 715              		.loc 1 404 0 discriminator 3
 716 000a 725D     		ldrb	r2, [r6, r5]
 717 000c 8400     		lsls	r4, r0, #2
 718 000e 0019     		adds	r0, r0, r4
 719              	.LVL95:
 720 0010 4300     		lsls	r3, r0, #1
 721 0012 9B18     		adds	r3, r3, r2
 722 0014 9BB2     		uxth	r3, r3
 723 0016 303B     		subs	r3, r3, #48
 724 0018 98B2     		uxth	r0, r3
 725              	.LVL96:
 403:AS7262_psoc4.c ****         num = num * 10 + (array[i] - '0');
 726              		.loc 1 403 0 discriminator 3
 727 001a 0135     		adds	r5, r5, #1
 728              	.LVL97:
 729              	.L39:
 403:AS7262_psoc4.c ****         num = num * 10 + (array[i] - '0');
 730              		.loc 1 403 0 is_stmt 0 discriminator 1
 731 001c 8D42     		cmp	r5, r1
 732 001e F4DB     		blt	.L40
 733              	.LBE5:
 405:AS7262_psoc4.c ****     }
 406:AS7262_psoc4.c ****     return num;
 407:AS7262_psoc4.c **** }
 734              		.loc 1 407 0 is_stmt 1
 735              		@ sp needed
 736              	.LVL98:
 737              	.LVL99:
 738 0020 70BD     		pop	{r4, r5, r6, pc}
 739              		.cfi_endproc
 740              	.LFE47:
 741              		.size	ConvertDecimal, .-ConvertDecimal
 742 0022 C046     		.section	.text.AS7262_Commands,"ax",%progbits
 743              		.align	2
 744              		.global	AS7262_Commands
 745              		.code	16
 746              		.thumb_func
 747              		.type	AS7262_Commands, %function
 748              	AS7262_Commands:
 749              	.LFB36:
 132:AS7262_psoc4.c ****     switch ( buffer[7] ) {
 750              		.loc 1 132 0
 751              		.cfi_startproc
 752              		@ args = 0, pretend = 0, frame = 0
 753              		@ frame_needed = 0, uses_anonymous_args = 0
 754              	.LVL100:
 755 0000 70B5     		push	{r4, r5, r6, lr}
 756              		.cfi_def_cfa_offset 16
 757              		.cfi_offset 4, -16
 758              		.cfi_offset 5, -12
 759              		.cfi_offset 6, -8
 760              		.cfi_offset 14, -4
 761 0002 0400     		movs	r4, r0
 133:AS7262_psoc4.c ****         case READ_COMMANDS: ;  // a command to read 'READ' data is given, or register commands 'REG
ARM GAS  C:\Users\Kyle\AppData\Local\Temp\ccoGrmoH.s 			page 23


 762              		.loc 1 133 0
 763 0004 C379     		ldrb	r3, [r0, #7]
 764 0006 473B     		subs	r3, r3, #71
 765 0008 DAB2     		uxtb	r2, r3
 766 000a 0B2A     		cmp	r2, #11
 767 000c 7AD8     		bhi	.L41
 768 000e 9300     		lsls	r3, r2, #2
 769 0010 3D4A     		ldr	r2, .L56
 770 0012 D358     		ldr	r3, [r2, r3]
 771 0014 9F46     		mov	pc, r3
 772              		.section	.rodata
 773              		.align	2
 774              	.L44:
 775 0000 AE000000 		.word	.L43
 776 0004 04010000 		.word	.L41
 777 0008 98000000 		.word	.L45
 778 000c 04010000 		.word	.L41
 779 0010 04010000 		.word	.L41
 780 0014 DE000000 		.word	.L46
 781 0018 04010000 		.word	.L41
 782 001c 04010000 		.word	.L41
 783 0020 04010000 		.word	.L41
 784 0024 C6000000 		.word	.L47
 785 0028 04010000 		.word	.L41
 786 002c 16000000 		.word	.L48
 787              		.section	.text.AS7262_Commands
 788              	.L48:
 789              	.LBB6:
 135:AS7262_psoc4.c ****                 if ( buffer[11] == 'W' ) {  // Write a register value
 790              		.loc 1 135 0
 791 0016 437A     		ldrb	r3, [r0, #9]
 792 0018 472B     		cmp	r3, #71
 793 001a 20D1     		bne	.L49
 136:AS7262_psoc4.c ****                     uint8 reg_to_write = convert_hex_string(&buffer[19]);
 794              		.loc 1 136 0
 795 001c C37A     		ldrb	r3, [r0, #11]
 796 001e 572B     		cmp	r3, #87
 797 0020 0CD1     		bne	.L50
 798              	.LBB7:
 137:AS7262_psoc4.c ****                     uint8 value_to_write = convert_hex_string(&buffer[24]);
 799              		.loc 1 137 0
 800 0022 1330     		adds	r0, r0, #19
 801              	.LVL101:
 802 0024 FFF7FEFF 		bl	convert_hex_string
 803              	.LVL102:
 804 0028 0500     		movs	r5, r0
 805              	.LVL103:
 138:AS7262_psoc4.c ****                     I2C_AS7262_Write(reg_to_write, value_to_write);
 806              		.loc 1 138 0
 807 002a 2000     		movs	r0, r4
 808 002c 1830     		adds	r0, r0, #24
 809 002e FFF7FEFF 		bl	convert_hex_string
 810              	.LVL104:
 811 0032 0100     		movs	r1, r0
 812              	.LVL105:
 139:AS7262_psoc4.c **** //                    LCD_Position(0, 0); 
 813              		.loc 1 139 0
ARM GAS  C:\Users\Kyle\AppData\Local\Temp\ccoGrmoH.s 			page 24


 814 0034 2800     		movs	r0, r5
 815 0036 FFF7FEFF 		bl	I2C_AS7262_Write
 816              	.LVL106:
 817              	.LBE7:
 818 003a 10E0     		b	.L49
 819              	.LVL107:
 820              	.L50:
 148:AS7262_psoc4.c ****                     uint8 reg_to_read = convert_hex_string(&buffer[18]);
 821              		.loc 1 148 0
 822 003c 522B     		cmp	r3, #82
 823 003e 0ED1     		bne	.L49
 824              	.LBB8:
 149:AS7262_psoc4.c ****                     uint8 reg_value = I2C_AS7262_Read(reg_to_read);
 825              		.loc 1 149 0
 826 0040 1230     		adds	r0, r0, #18
 827              	.LVL108:
 828 0042 FFF7FEFF 		bl	convert_hex_string
 829              	.LVL109:
 150:AS7262_psoc4.c ****                     sprintf(USB_str, "REG_VALUE|0x%02X", reg_value);
 830              		.loc 1 150 0
 831 0046 FFF7FEFF 		bl	I2C_AS7262_Read
 832              	.LVL110:
 833 004a 0200     		movs	r2, r0
 834              	.LVL111:
 151:AS7262_psoc4.c **** //                    LCD_Position(0, 0); 
 835              		.loc 1 151 0
 836 004c 2F4D     		ldr	r5, .L56+4
 837 004e 3049     		ldr	r1, .L56+8
 838 0050 2800     		movs	r0, r5
 839 0052 FFF7FEFF 		bl	sprintf
 840              	.LVL112:
 156:AS7262_psoc4.c ****                 }
 841              		.loc 1 156 0
 842 0056 0E21     		movs	r1, #14
 843 0058 2800     		movs	r0, r5
 844 005a FFF7FEFF 		bl	USB_Export_Data
 845              	.LVL113:
 846              	.L49:
 847              	.LBE8:
 159:AS7262_psoc4.c **** //                LCD_Position(0, 0);
 848              		.loc 1 159 0
 849 005e 237B     		ldrb	r3, [r4, #12]
 850 0060 532B     		cmp	r3, #83
 851 0062 4FD1     		bne	.L41
 163:AS7262_psoc4.c **** //                    LCD_Position(0, 0);
 852              		.loc 1 163 0
 853 0064 E37C     		ldrb	r3, [r4, #19]
 854 0066 462B     		cmp	r3, #70
 855 0068 11D1     		bne	.L51
 856              	.LBB9:
 173:AS7262_psoc4.c ****                     uint led_reg_on = led_reg_hold;
 857              		.loc 1 173 0
 858 006a 2A4B     		ldr	r3, .L56+12
 859 006c 5C7C     		ldrb	r4, [r3, #17]
 860              	.LVL114:
 176:AS7262_psoc4.c ****                     
 861              		.loc 1 176 0
ARM GAS  C:\Users\Kyle\AppData\Local\Temp\ccoGrmoH.s 			page 25


 862 006e 0821     		movs	r1, #8
 863 0070 2143     		orrs	r1, r4
 864 0072 C9B2     		uxtb	r1, r1
 865 0074 0720     		movs	r0, #7
 866 0076 FFF7FEFF 		bl	I2C_AS7262_Write
 867              	.LVL115:
 178:AS7262_psoc4.c ****                     
 868              		.loc 1 178 0
 869 007a 0720     		movs	r0, #7
 870 007c FFF7FEFF 		bl	I2C_AS7262_Read
 871              	.LVL116:
 181:AS7262_psoc4.c ****                     
 872              		.loc 1 181 0
 873 0080 FFF7FEFF 		bl	AS7262_SingleRead
 874              	.LVL117:
 183:AS7262_psoc4.c **** //                    LCD_Position(0, 0);
 875              		.loc 1 183 0
 876 0084 2100     		movs	r1, r4
 877 0086 0720     		movs	r0, #7
 878 0088 FFF7FEFF 		bl	I2C_AS7262_Write
 879              	.LVL118:
 880              	.LBE9:
 881 008c 3AE0     		b	.L41
 882              	.LVL119:
 883              	.L51:
 191:AS7262_psoc4.c **** //                    LCD_Position(0, 0);
 884              		.loc 1 191 0
 885 008e 4E2B     		cmp	r3, #78
 886 0090 38D1     		bne	.L41
 194:AS7262_psoc4.c **** //                    LCD_Position(0, 0);
 887              		.loc 1 194 0
 888 0092 FFF7FEFF 		bl	AS7262_SingleRead
 889              	.LVL120:
 890 0096 35E0     		b	.L41
 891              	.LVL121:
 892              	.L45:
 203:AS7262_psoc4.c ****             as7262.integration_time = new_integration_time;
 893              		.loc 1 203 0
 894 0098 1630     		adds	r0, r0, #22
 895              	.LVL122:
 896 009a 0321     		movs	r1, #3
 897 009c FFF7FEFF 		bl	ConvertDecimal
 898              	.LVL123:
 899 00a0 C1B2     		uxtb	r1, r0
 900              	.LVL124:
 204:AS7262_psoc4.c ****             I2C_AS7262_Write( AS726x_REG_INT, as7262.integration_time );
 901              		.loc 1 204 0
 902 00a2 1C4B     		ldr	r3, .L56+12
 903 00a4 D970     		strb	r1, [r3, #3]
 205:AS7262_psoc4.c ****             break;
 904              		.loc 1 205 0
 905 00a6 0520     		movs	r0, #5
 906 00a8 FFF7FEFF 		bl	I2C_AS7262_Write
 907              	.LVL125:
 206:AS7262_psoc4.c ****             
 908              		.loc 1 206 0
 909 00ac 2AE0     		b	.L41
ARM GAS  C:\Users\Kyle\AppData\Local\Temp\ccoGrmoH.s 			page 26


 910              	.LVL126:
 911              	.L43:
 209:AS7262_psoc4.c ****             update_control_reg_value( &as7262 );
 912              		.loc 1 209 0
 913 00ae 0C30     		adds	r0, r0, #12
 914              	.LVL127:
 915 00b0 0121     		movs	r1, #1
 916 00b2 FFF7FEFF 		bl	ConvertDecimal
 917              	.LVL128:
 918 00b6 0300     		movs	r3, r0
 919 00b8 1648     		ldr	r0, .L56+12
 920 00ba 0322     		movs	r2, #3
 921 00bc 1340     		ands	r3, r2
 922 00be 4370     		strb	r3, [r0, #1]
 210:AS7262_psoc4.c ****             
 923              		.loc 1 210 0
 924 00c0 FFF7FEFF 		bl	update_control_reg_value
 925              	.LVL129:
 212:AS7262_psoc4.c ****         case SET_LED_POWER: ; // set the current through the main light source
 926              		.loc 1 212 0
 927 00c4 1EE0     		b	.L41
 928              	.LVL130:
 929              	.L47:
 214:AS7262_psoc4.c ****             update_LED_reg_value( &as7262 );
 930              		.loc 1 214 0
 931 00c6 1330     		adds	r0, r0, #19
 932              	.LVL131:
 933 00c8 0121     		movs	r1, #1
 934 00ca FFF7FEFF 		bl	ConvertDecimal
 935              	.LVL132:
 936 00ce 0300     		movs	r3, r0
 937 00d0 1048     		ldr	r0, .L56+12
 938 00d2 0322     		movs	r2, #3
 939 00d4 1340     		ands	r3, r2
 940 00d6 0371     		strb	r3, [r0, #4]
 215:AS7262_psoc4.c ****             break;
 941              		.loc 1 215 0
 942 00d8 FFF7FEFF 		bl	update_LED_reg_value
 943              	.LVL133:
 216:AS7262_psoc4.c ****         case LED_ON_OFF: ;  //  set if the LED should be on or off
 944              		.loc 1 216 0
 945 00dc 12E0     		b	.L41
 946              	.LVL134:
 947              	.L46:
 218:AS7262_psoc4.c ****                 as7262.LED_on = True;
 948              		.loc 1 218 0
 949 00de 437C     		ldrb	r3, [r0, #17]
 950 00e0 4E2B     		cmp	r3, #78
 951 00e2 01D0     		beq	.L52
 218:AS7262_psoc4.c ****                 as7262.LED_on = True;
 952              		.loc 1 218 0 is_stmt 0 discriminator 1
 953 00e4 6E2B     		cmp	r3, #110
 954 00e6 03D1     		bne	.L53
 955              	.L52:
 219:AS7262_psoc4.c ****             }
 956              		.loc 1 219 0 is_stmt 1
 957 00e8 0122     		movs	r2, #1
ARM GAS  C:\Users\Kyle\AppData\Local\Temp\ccoGrmoH.s 			page 27


 958 00ea 0A4B     		ldr	r3, .L56+12
 959 00ec 5A71     		strb	r2, [r3, #5]
 960 00ee 06E0     		b	.L54
 961              	.L53:
 221:AS7262_psoc4.c ****                 as7262.LED_on = False;
 962              		.loc 1 221 0
 963 00f0 462B     		cmp	r3, #70
 964 00f2 01D0     		beq	.L55
 221:AS7262_psoc4.c ****                 as7262.LED_on = False;
 965              		.loc 1 221 0 is_stmt 0 discriminator 1
 966 00f4 662B     		cmp	r3, #102
 967 00f6 02D1     		bne	.L54
 968              	.L55:
 222:AS7262_psoc4.c ****             }
 969              		.loc 1 222 0 is_stmt 1
 970 00f8 0022     		movs	r2, #0
 971 00fa 064B     		ldr	r3, .L56+12
 972 00fc 5A71     		strb	r2, [r3, #5]
 973              	.L54:
 224:AS7262_psoc4.c ****             break;
 974              		.loc 1 224 0
 975 00fe 0548     		ldr	r0, .L56+12
 976              	.LVL135:
 977 0100 FFF7FEFF 		bl	update_LED_reg_value
 978              	.LVL136:
 979              	.L41:
 980              	.LBE6:
 227:AS7262_psoc4.c **** 
 981              		.loc 1 227 0
 982              		@ sp needed
 983 0104 70BD     		pop	{r4, r5, r6, pc}
 984              	.L57:
 985 0106 C046     		.align	2
 986              	.L56:
 987 0108 00000000 		.word	.L44
 988 010c 00000000 		.word	USB_str
 989 0110 08000000 		.word	.LC10
 990 0114 00000000 		.word	.LANCHOR0
 991              		.cfi_endproc
 992              	.LFE36:
 993              		.size	AS7262_Commands, .-AS7262_Commands
 994              		.comm	color_data,24,4
 995              		.comm	all_calibrated_data,28,4
 996              		.global	as7262
 997              		.comm	write_buffer,2,4
 998              		.comm	read_buffer,24,4
 999              		.comm	USB_str,40,4
 1000              		.comm	OUT_Data_Buffer,40,4
 1001              		.data
 1002              		.align	2
 1003              		.set	.LANCHOR0,. + 0
 1004              		.type	as7262, %object
 1005              		.size	as7262, 20
 1006              	as7262:
 1007 0000 03       		.byte	3
 1008 0001 00       		.byte	0
 1009 0002 01       		.byte	1
ARM GAS  C:\Users\Kyle\AppData\Local\Temp\ccoGrmoH.s 			page 28


 1010 0003 FF       		.byte	-1
 1011 0004 00       		.byte	0
 1012 0005 00       		.byte	0
 1013 0006 02       		.byte	2
 1014 0007 00       		.byte	0
 1015 0008 00000000 		.space	12
 1015      00000000 
 1015      00000000 
 1016              		.section	.rodata.str1.4,"aMS",%progbits,1
 1017              		.align	2
 1018              	.LC6:
 1019 0000 4641494C 		.ascii	"FAILED\000"
 1019      454400
 1020 0007 00       		.space	1
 1021              	.LC10:
 1022 0008 5245475F 		.ascii	"REG_VALUE|0x%02X\000"
 1022      56414C55 
 1022      457C3078 
 1022      25303258 
 1022      00
 1023              		.text
 1024              	.Letext0:
 1025              		.file 2 "Generated_Source\\PSoC4/cytypes.h"
 1026              		.file 3 "c:\\program files (x86)\\cypress\\psoc creator\\4.1\\psoc creator\\import\\gnu\\arm\\5.4.
 1027              		.file 4 "AS7262_psoc4.h"
 1028              		.file 5 "usb_psoc4.h"
 1029              		.file 6 "i2c_functions.h"
 1030              		.file 7 "Generated_Source\\PSoC4/CyLib.h"
 1031              		.file 8 "c:\\program files (x86)\\cypress\\psoc creator\\4.1\\psoc creator\\import\\gnu\\arm\\5.4.