ARM GAS  C:\Users\Kyle\AppData\Local\Temp\cc4jscxi.s 			page 1


   1              		.syntax unified
   2              		.cpu cortex-m0
   3              		.fpu softvfp
   4              		.eabi_attribute 20, 1
   5              		.eabi_attribute 21, 1
   6              		.eabi_attribute 23, 3
   7              		.eabi_attribute 24, 1
   8              		.eabi_attribute 25, 1
   9              		.eabi_attribute 26, 1
  10              		.eabi_attribute 30, 1
  11              		.eabi_attribute 34, 0
  12              		.eabi_attribute 18, 4
  13              		.thumb
  14              		.syntax unified
  15              		.file	"i2c_functions.c"
  16              		.text
  17              	.Ltext0:
  18              		.cfi_sections	.debug_frame
  19              		.section	.text.sensor_write,"ax",%progbits
  20              		.align	2
  21              		.code	16
  22              		.thumb_func
  23              		.type	sensor_write, %function
  24              	sensor_write:
  25              	.LFB38:
  26              		.file 1 "i2c_functions.c"
   1:i2c_functions.c **** /*******************************************************************************
   2:i2c_functions.c ****  * File Name: i2c_functions.c
   3:i2c_functions.c ****  * Version 0.80
   4:i2c_functions.c ****  *
   5:i2c_functions.c ****  * Description:
   6:i2c_functions.c ****  *  This file provides higher level I2C functions.
   7:i2c_functions.c ****  *  A I2C master component with the name I2C is required
   8:i2c_functions.c ****  *
   9:i2c_functions.c **** *******************************************************************************
  10:i2c_functions.c ****  * Copyright by Kyle Lopin, Naresuan University, 2017
  11:i2c_functions.c ****  * All Rights Reserved
  12:i2c_functions.c ****  * UNPUBLISHED, LICENSED SOFTWARE.
  13:i2c_functions.c ****  *
  14:i2c_functions.c ****  * CONFIDENTIAL AND PROPRIETARY INFORMATION
  15:i2c_functions.c ****  * WHICH IS THE PROPERTY OF Naresuan University.
  16:i2c_functions.c ****  *
  17:i2c_functions.c ****  * ========================================
  18:i2c_functions.c **** */
  19:i2c_functions.c **** 
  20:i2c_functions.c **** #include "i2c_functions.h"
  21:i2c_functions.c **** 
  22:i2c_functions.c **** extern char LCD_str[40];
  23:i2c_functions.c **** 
  24:i2c_functions.c **** 
  25:i2c_functions.c **** /***************************************
  26:i2c_functions.c **** *      Static Function Prototypes
  27:i2c_functions.c **** ***************************************/ 
  28:i2c_functions.c **** 
  29:i2c_functions.c **** 
  30:i2c_functions.c **** static uint8 sensor_read(uint8 address, uint8* buffer, uint8 _register, uint8 num_bytes);
  31:i2c_functions.c **** static uint8 sensor_write(uint8 address, uint8* buffer, uint8 num_bytes);
ARM GAS  C:\Users\Kyle\AppData\Local\Temp\cc4jscxi.s 			page 2


  32:i2c_functions.c **** 
  33:i2c_functions.c **** uint8 sensor_write8(uint8 address, uint8* buffer) {   
  34:i2c_functions.c ****     return sensor_write(address, buffer, 2);
  35:i2c_functions.c **** }
  36:i2c_functions.c **** 
  37:i2c_functions.c **** uint8 sensor_write16(uint8 address, uint8* buffer) {   
  38:i2c_functions.c ****     return sensor_write(address, buffer, 3);
  39:i2c_functions.c **** }
  40:i2c_functions.c **** 
  41:i2c_functions.c **** uint8 sensor_write_n(uint8 address, uint8* buffer, uint8 num_bytes) {   
  42:i2c_functions.c ****     return sensor_write(address, buffer, num_bytes);
  43:i2c_functions.c **** }
  44:i2c_functions.c **** 
  45:i2c_functions.c **** uint8 sensor_write(uint8 address, uint8* buffer, uint8 num_bytes) {   
  27              		.loc 1 45 0
  28              		.cfi_startproc
  29              		@ args = 0, pretend = 0, frame = 0
  30              		@ frame_needed = 0, uses_anonymous_args = 0
  31              	.LVL0:
  32 0000 10B5     		push	{r4, lr}
  33              		.cfi_def_cfa_offset 8
  34              		.cfi_offset 4, -8
  35              		.cfi_offset 14, -4
  36              	.LVL1:
  46:i2c_functions.c ****     uint8 status = 0;
  47:i2c_functions.c ****     status = I2C_I2CMasterWriteBuf(address, buffer, num_bytes, I2C_I2C_MODE_COMPLETE_XFER);
  37              		.loc 1 47 0
  38 0002 0023     		movs	r3, #0
  39 0004 FFF7FEFF 		bl	I2C_I2CMasterWriteBuf
  40              	.LVL2:
  41 0008 C4B2     		uxtb	r4, r0
  42              	.LVL3:
  43              	.L2:
  48:i2c_functions.c ****     for(;;) {
  49:i2c_functions.c ****         if (0x00 != (I2C_I2CMasterStatus() & I2C_I2C_MSTAT_WR_CMPLT)) {
  44              		.loc 1 49 0
  45 000a FFF7FEFF 		bl	I2C_I2CMasterStatus
  46              	.LVL4:
  47 000e 8307     		lsls	r3, r0, #30
  48 0010 FBD5     		bpl	.L2
  50:i2c_functions.c ****             break;
  51:i2c_functions.c ****         }
  52:i2c_functions.c ****     }
  53:i2c_functions.c ****     return status;
  54:i2c_functions.c **** }
  49              		.loc 1 54 0
  50 0012 2000     		movs	r0, r4
  51              		@ sp needed
  52              	.LVL5:
  53 0014 10BD     		pop	{r4, pc}
  54              		.cfi_endproc
  55              	.LFE38:
  56              		.size	sensor_write, .-sensor_write
  57 0016 C046     		.section	.text.sensor_read,"ax",%progbits
  58              		.align	2
  59              		.code	16
  60              		.thumb_func
ARM GAS  C:\Users\Kyle\AppData\Local\Temp\cc4jscxi.s 			page 3


  61              		.type	sensor_read, %function
  62              	sensor_read:
  63              	.LFB42:
  55:i2c_functions.c **** 
  56:i2c_functions.c **** 
  57:i2c_functions.c **** 
  58:i2c_functions.c **** uint8 sensor_read8(uint8 address, uint8* buffer, uint8 _register, uint8* error) {
  59:i2c_functions.c **** //    LCD_Position(0, 0); 
  60:i2c_functions.c **** //    LCD_PrintString("read0010   ");
  61:i2c_functions.c ****     *error = sensor_read(address, buffer, _register, 1);
  62:i2c_functions.c ****     return buffer[0];
  63:i2c_functions.c **** }
  64:i2c_functions.c **** 
  65:i2c_functions.c **** uint16 sensor_read16(uint8 address, uint8* buffer, uint8 _register, uint8* error) {
  66:i2c_functions.c ****     *error = sensor_read(address, buffer, _register, 2);
  67:i2c_functions.c ****     return buffer[0] | (buffer[1] << 8);
  68:i2c_functions.c **** }
  69:i2c_functions.c **** 
  70:i2c_functions.c **** uint8 sensor_read_n(uint8 address, uint8* buffer, uint8 _register, uint8 num_bytes) {
  71:i2c_functions.c ****     return sensor_read(address, buffer, _register, num_bytes);
  72:i2c_functions.c **** }
  73:i2c_functions.c **** 
  74:i2c_functions.c **** static uint8 sensor_read(uint8 address, uint8* buffer, uint8 _register, uint8 num_bytes) {
  64              		.loc 1 74 0
  65              		.cfi_startproc
  66              		@ args = 0, pretend = 0, frame = 8
  67              		@ frame_needed = 0, uses_anonymous_args = 0
  68              	.LVL6:
  69 0000 F0B5     		push	{r4, r5, r6, r7, lr}
  70              		.cfi_def_cfa_offset 20
  71              		.cfi_offset 4, -20
  72              		.cfi_offset 5, -16
  73              		.cfi_offset 6, -12
  74              		.cfi_offset 7, -8
  75              		.cfi_offset 14, -4
  76 0002 83B0     		sub	sp, sp, #12
  77              		.cfi_def_cfa_offset 32
  78 0004 0D00     		movs	r5, r1
  79 0006 1E00     		movs	r6, r3
  80 0008 6B46     		mov	r3, sp
  81              	.LVL7:
  82 000a D91D     		adds	r1, r3, #7
  83              	.LVL8:
  84 000c 0A70     		strb	r2, [r1]
  75:i2c_functions.c ****     uint8 temp;
  76:i2c_functions.c **** //    LCD_Position(0, 0); 
  77:i2c_functions.c **** //    LCD_PrintString("read0020   ");
  78:i2c_functions.c ****     // I2C_MasterSendStart(address, 0);
  79:i2c_functions.c ****     temp = I2C_I2CMasterWriteBuf(address, &_register, 1, I2C_I2C_MODE_NO_STOP);
  85              		.loc 1 79 0
  86 000e 0400     		movs	r4, r0
  87 0010 0223     		movs	r3, #2
  88 0012 0122     		movs	r2, #1
  89              	.LVL9:
  90 0014 FFF7FEFF 		bl	I2C_I2CMasterWriteBuf
  91              	.LVL10:
  92 0018 C7B2     		uxtb	r7, r0
ARM GAS  C:\Users\Kyle\AppData\Local\Temp\cc4jscxi.s 			page 4


  93              	.LVL11:
  94              	.L4:
  80:i2c_functions.c **** //    LCD_Position(0, 0); 
  81:i2c_functions.c **** //    sprintf(LCD_str, "temp stat:%d", temp);
  82:i2c_functions.c **** //    LCD_PrintString(LCD_str);
  83:i2c_functions.c ****     for(;;) {
  84:i2c_functions.c ****         if (0x00 != (I2C_I2CMasterStatus() & I2C_I2C_MSTAT_WR_CMPLT)) {
  95              		.loc 1 84 0
  96 001a FFF7FEFF 		bl	I2C_I2CMasterStatus
  97              	.LVL12:
  98 001e 8307     		lsls	r3, r0, #30
  99 0020 FBD5     		bpl	.L4
  85:i2c_functions.c ****             break;
  86:i2c_functions.c ****         }
  87:i2c_functions.c **** //        LCD_Position(0, 0); 
  88:i2c_functions.c **** //        sprintf(LCD_str, "MS status:%d", I2C_MasterStatus());
  89:i2c_functions.c **** //        LCD_PrintString(LCD_str);
  90:i2c_functions.c ****     }
  91:i2c_functions.c ****     if (temp != I2C_I2C_MSTR_NO_ERROR ) {
 100              		.loc 1 91 0
 101 0022 002F     		cmp	r7, #0
 102 0024 01D0     		beq	.L5
  92:i2c_functions.c ****         return temp;
 103              		.loc 1 92 0
 104 0026 3800     		movs	r0, r7
 105 0028 10E0     		b	.L3
 106              	.L5:
  93:i2c_functions.c ****     }
  94:i2c_functions.c ****     
  95:i2c_functions.c ****     I2C_I2CMasterClearWriteBuf();
 107              		.loc 1 95 0
 108 002a FFF7FEFF 		bl	I2C_I2CMasterClearWriteBuf
 109              	.LVL13:
 110              	.L7:
  96:i2c_functions.c **** 
  97:i2c_functions.c ****     do {
  98:i2c_functions.c ****         temp = I2C_I2CMasterReadBuf(address, buffer, num_bytes, I2C_I2C_MODE_REPEAT_START);
 111              		.loc 1 98 0
 112 002e 0123     		movs	r3, #1
 113 0030 3200     		movs	r2, r6
 114 0032 2900     		movs	r1, r5
 115 0034 2000     		movs	r0, r4
 116 0036 FFF7FEFF 		bl	I2C_I2CMasterReadBuf
 117              	.LVL14:
 118 003a C7B2     		uxtb	r7, r0
 119              	.LVL15:
 120              	.L6:
  99:i2c_functions.c ****         for(;;) {
 100:i2c_functions.c ****             if (0x00 != (I2C_I2CMasterStatus() & I2C_I2C_MSTAT_RD_CMPLT)) {
 121              		.loc 1 100 0
 122 003c FFF7FEFF 		bl	I2C_I2CMasterStatus
 123              	.LVL16:
 124 0040 C307     		lsls	r3, r0, #31
 125 0042 FBD5     		bpl	.L6
 101:i2c_functions.c ****                 break;
 102:i2c_functions.c ****             }
 103:i2c_functions.c ****         }
ARM GAS  C:\Users\Kyle\AppData\Local\Temp\cc4jscxi.s 			page 5


 104:i2c_functions.c ****     }
 105:i2c_functions.c ****     while (temp != I2C_I2C_MSTR_NO_ERROR);
 126              		.loc 1 105 0
 127 0044 002F     		cmp	r7, #0
 128 0046 F2D1     		bne	.L7
 106:i2c_functions.c ****     I2C_I2CMasterClearReadBuf();
 129              		.loc 1 106 0
 130 0048 FFF7FEFF 		bl	I2C_I2CMasterClearReadBuf
 131              	.LVL17:
 132              	.L3:
 107:i2c_functions.c **** }
 133              		.loc 1 107 0
 134 004c 03B0     		add	sp, sp, #12
 135              	.LVL18:
 136              		@ sp needed
 137              	.LVL19:
 138              	.LVL20:
 139 004e F0BD     		pop	{r4, r5, r6, r7, pc}
 140              		.cfi_endproc
 141              	.LFE42:
 142              		.size	sensor_read, .-sensor_read
 143              		.section	.text.sensor_write8,"ax",%progbits
 144              		.align	2
 145              		.global	sensor_write8
 146              		.code	16
 147              		.thumb_func
 148              		.type	sensor_write8, %function
 149              	sensor_write8:
 150              	.LFB35:
  33:i2c_functions.c ****     return sensor_write(address, buffer, 2);
 151              		.loc 1 33 0
 152              		.cfi_startproc
 153              		@ args = 0, pretend = 0, frame = 0
 154              		@ frame_needed = 0, uses_anonymous_args = 0
 155              	.LVL21:
 156 0000 10B5     		push	{r4, lr}
 157              		.cfi_def_cfa_offset 8
 158              		.cfi_offset 4, -8
 159              		.cfi_offset 14, -4
  34:i2c_functions.c **** }
 160              		.loc 1 34 0
 161 0002 0222     		movs	r2, #2
 162 0004 FFF7FEFF 		bl	sensor_write
 163              	.LVL22:
  35:i2c_functions.c **** 
 164              		.loc 1 35 0
 165              		@ sp needed
 166 0008 10BD     		pop	{r4, pc}
 167              		.cfi_endproc
 168              	.LFE35:
 169              		.size	sensor_write8, .-sensor_write8
 170 000a C046     		.section	.text.sensor_write16,"ax",%progbits
 171              		.align	2
 172              		.global	sensor_write16
 173              		.code	16
 174              		.thumb_func
 175              		.type	sensor_write16, %function
ARM GAS  C:\Users\Kyle\AppData\Local\Temp\cc4jscxi.s 			page 6


 176              	sensor_write16:
 177              	.LFB36:
  37:i2c_functions.c ****     return sensor_write(address, buffer, 3);
 178              		.loc 1 37 0
 179              		.cfi_startproc
 180              		@ args = 0, pretend = 0, frame = 0
 181              		@ frame_needed = 0, uses_anonymous_args = 0
 182              	.LVL23:
 183 0000 10B5     		push	{r4, lr}
 184              		.cfi_def_cfa_offset 8
 185              		.cfi_offset 4, -8
 186              		.cfi_offset 14, -4
  38:i2c_functions.c **** }
 187              		.loc 1 38 0
 188 0002 0322     		movs	r2, #3
 189 0004 FFF7FEFF 		bl	sensor_write
 190              	.LVL24:
  39:i2c_functions.c **** 
 191              		.loc 1 39 0
 192              		@ sp needed
 193 0008 10BD     		pop	{r4, pc}
 194              		.cfi_endproc
 195              	.LFE36:
 196              		.size	sensor_write16, .-sensor_write16
 197 000a C046     		.section	.text.sensor_write_n,"ax",%progbits
 198              		.align	2
 199              		.global	sensor_write_n
 200              		.code	16
 201              		.thumb_func
 202              		.type	sensor_write_n, %function
 203              	sensor_write_n:
 204              	.LFB37:
  41:i2c_functions.c ****     return sensor_write(address, buffer, num_bytes);
 205              		.loc 1 41 0
 206              		.cfi_startproc
 207              		@ args = 0, pretend = 0, frame = 0
 208              		@ frame_needed = 0, uses_anonymous_args = 0
 209              	.LVL25:
 210 0000 10B5     		push	{r4, lr}
 211              		.cfi_def_cfa_offset 8
 212              		.cfi_offset 4, -8
 213              		.cfi_offset 14, -4
  42:i2c_functions.c **** }
 214              		.loc 1 42 0
 215 0002 FFF7FEFF 		bl	sensor_write
 216              	.LVL26:
  43:i2c_functions.c **** 
 217              		.loc 1 43 0
 218              		@ sp needed
 219 0006 10BD     		pop	{r4, pc}
 220              		.cfi_endproc
 221              	.LFE37:
 222              		.size	sensor_write_n, .-sensor_write_n
 223              		.section	.text.sensor_read8,"ax",%progbits
 224              		.align	2
 225              		.global	sensor_read8
 226              		.code	16
ARM GAS  C:\Users\Kyle\AppData\Local\Temp\cc4jscxi.s 			page 7


 227              		.thumb_func
 228              		.type	sensor_read8, %function
 229              	sensor_read8:
 230              	.LFB39:
  58:i2c_functions.c **** //    LCD_Position(0, 0); 
 231              		.loc 1 58 0
 232              		.cfi_startproc
 233              		@ args = 0, pretend = 0, frame = 0
 234              		@ frame_needed = 0, uses_anonymous_args = 0
 235              	.LVL27:
 236 0000 70B5     		push	{r4, r5, r6, lr}
 237              		.cfi_def_cfa_offset 16
 238              		.cfi_offset 4, -16
 239              		.cfi_offset 5, -12
 240              		.cfi_offset 6, -8
 241              		.cfi_offset 14, -4
 242 0002 0C00     		movs	r4, r1
 243 0004 1D00     		movs	r5, r3
  61:i2c_functions.c ****     return buffer[0];
 244              		.loc 1 61 0
 245 0006 0123     		movs	r3, #1
 246              	.LVL28:
 247 0008 FFF7FEFF 		bl	sensor_read
 248              	.LVL29:
 249 000c 2870     		strb	r0, [r5]
  62:i2c_functions.c **** }
 250              		.loc 1 62 0
 251 000e 2078     		ldrb	r0, [r4]
  63:i2c_functions.c **** 
 252              		.loc 1 63 0
 253              		@ sp needed
 254              	.LVL30:
 255              	.LVL31:
 256 0010 70BD     		pop	{r4, r5, r6, pc}
 257              		.cfi_endproc
 258              	.LFE39:
 259              		.size	sensor_read8, .-sensor_read8
 260 0012 C046     		.section	.text.sensor_read16,"ax",%progbits
 261              		.align	2
 262              		.global	sensor_read16
 263              		.code	16
 264              		.thumb_func
 265              		.type	sensor_read16, %function
 266              	sensor_read16:
 267              	.LFB40:
  65:i2c_functions.c ****     *error = sensor_read(address, buffer, _register, 2);
 268              		.loc 1 65 0
 269              		.cfi_startproc
 270              		@ args = 0, pretend = 0, frame = 0
 271              		@ frame_needed = 0, uses_anonymous_args = 0
 272              	.LVL32:
 273 0000 70B5     		push	{r4, r5, r6, lr}
 274              		.cfi_def_cfa_offset 16
 275              		.cfi_offset 4, -16
 276              		.cfi_offset 5, -12
 277              		.cfi_offset 6, -8
 278              		.cfi_offset 14, -4
ARM GAS  C:\Users\Kyle\AppData\Local\Temp\cc4jscxi.s 			page 8


 279 0002 0C00     		movs	r4, r1
 280 0004 1D00     		movs	r5, r3
  66:i2c_functions.c ****     return buffer[0] | (buffer[1] << 8);
 281              		.loc 1 66 0
 282 0006 0223     		movs	r3, #2
 283              	.LVL33:
 284 0008 FFF7FEFF 		bl	sensor_read
 285              	.LVL34:
 286 000c 2870     		strb	r0, [r5]
  67:i2c_functions.c **** }
 287              		.loc 1 67 0
 288 000e 2378     		ldrb	r3, [r4]
 289 0010 6078     		ldrb	r0, [r4, #1]
 290 0012 0002     		lsls	r0, r0, #8
 291 0014 1843     		orrs	r0, r3
  68:i2c_functions.c **** 
 292              		.loc 1 68 0
 293              		@ sp needed
 294              	.LVL35:
 295              	.LVL36:
 296 0016 70BD     		pop	{r4, r5, r6, pc}
 297              		.cfi_endproc
 298              	.LFE40:
 299              		.size	sensor_read16, .-sensor_read16
 300              		.section	.text.sensor_read_n,"ax",%progbits
 301              		.align	2
 302              		.global	sensor_read_n
 303              		.code	16
 304              		.thumb_func
 305              		.type	sensor_read_n, %function
 306              	sensor_read_n:
 307              	.LFB41:
  70:i2c_functions.c ****     return sensor_read(address, buffer, _register, num_bytes);
 308              		.loc 1 70 0
 309              		.cfi_startproc
 310              		@ args = 0, pretend = 0, frame = 0
 311              		@ frame_needed = 0, uses_anonymous_args = 0
 312              	.LVL37:
 313 0000 10B5     		push	{r4, lr}
 314              		.cfi_def_cfa_offset 8
 315              		.cfi_offset 4, -8
 316              		.cfi_offset 14, -4
  71:i2c_functions.c **** }
 317              		.loc 1 71 0
 318 0002 FFF7FEFF 		bl	sensor_read
 319              	.LVL38:
  72:i2c_functions.c **** 
 320              		.loc 1 72 0
 321              		@ sp needed
 322 0006 10BD     		pop	{r4, pc}
 323              		.cfi_endproc
 324              	.LFE41:
 325              		.size	sensor_read_n, .-sensor_read_n
 326              		.text
 327              	.Letext0:
 328              		.file 2 "Generated_Source\\PSoC4/cytypes.h"
 329              		.file 3 "Generated_Source\\PSoC4/I2C_I2C.h"
ARM GAS  C:\Users\Kyle\AppData\Local\Temp\cc4jscxi.s 			page 9

