ARM GAS  C:\Users\Kyle\AppData\Local\Temp\cc3JtO6L.s 			page 1


   1              		.syntax unified
   2              		.cpu cortex-m0
   3              		.fpu softvfp
   4              		.eabi_attribute 20, 1
   5              		.eabi_attribute 21, 1
   6              		.eabi_attribute 23, 3
   7              		.eabi_attribute 24, 1
   8              		.eabi_attribute 25, 1
   9              		.eabi_attribute 26, 1
  10              		.eabi_attribute 30, 1
  11              		.eabi_attribute 34, 0
  12              		.eabi_attribute 18, 4
  13              		.thumb
  14              		.syntax unified
  15              		.file	"LCD.c"
  16              		.text
  17              	.Ltext0:
  18              		.cfi_sections	.debug_frame
  19              		.section	.text.LCD_WrDataToBuff,"ax",%progbits
  20              		.align	2
  21              		.code	16
  22              		.thumb_func
  23              		.type	LCD_WrDataToBuff, %function
  24              	LCD_WrDataToBuff:
  25              	.LFB7:
  26              		.file 1 "Generated_Source\\PSoC4\\LCD.c"
   1:Generated_Source\PSoC4/LCD.c **** /*******************************************************************************
   2:Generated_Source\PSoC4/LCD.c **** * File Name: LCD.c
   3:Generated_Source\PSoC4/LCD.c **** * Version 1.20
   4:Generated_Source\PSoC4/LCD.c **** *
   5:Generated_Source\PSoC4/LCD.c **** * Description:
   6:Generated_Source\PSoC4/LCD.c **** *  This file provides source code for the I2C LCD component's API.
   7:Generated_Source\PSoC4/LCD.c **** *
   8:Generated_Source\PSoC4/LCD.c **** * Note:
   9:Generated_Source\PSoC4/LCD.c **** *
  10:Generated_Source\PSoC4/LCD.c **** ********************************************************************************
  11:Generated_Source\PSoC4/LCD.c **** * Copyright 2013-2014, Cypress Semiconductor Corporation.  All rights reserved.
  12:Generated_Source\PSoC4/LCD.c **** * You may use this file only in accordance with the license, terms, conditions,
  13:Generated_Source\PSoC4/LCD.c **** * disclaimers, and limitations in the end user license agreement accompanying
  14:Generated_Source\PSoC4/LCD.c **** * the software package with which this file was provided.
  15:Generated_Source\PSoC4/LCD.c **** *******************************************************************************/
  16:Generated_Source\PSoC4/LCD.c **** 
  17:Generated_Source\PSoC4/LCD.c **** #include "LCD.h"
  18:Generated_Source\PSoC4/LCD.c **** 
  19:Generated_Source\PSoC4/LCD.c **** 
  20:Generated_Source\PSoC4/LCD.c **** /* Internal function ptototypes */
  21:Generated_Source\PSoC4/LCD.c **** static void LCD_WrDataToBuff(uint8 dByte) CYREENTRANT;
  22:Generated_Source\PSoC4/LCD.c **** static void LCD_WrCntrlPatt(uint8 cmdIndex) CYREENTRANT;
  23:Generated_Source\PSoC4/LCD.c **** static void LCD_SendSequence(void) CYREENTRANT;
  24:Generated_Source\PSoC4/LCD.c **** 
  25:Generated_Source\PSoC4/LCD.c **** #if (LCD_COMMAND_FORMAT == LCD_NXP_PCF2119X)
  26:Generated_Source\PSoC4/LCD.c ****     static void LCD_SendCmd(uint8 cmd) CYREENTRANT;
  27:Generated_Source\PSoC4/LCD.c **** #endif /* LCD_COMMAND_FORMAT == LCD_NXP_PCF2119X */
  28:Generated_Source\PSoC4/LCD.c **** 
  29:Generated_Source\PSoC4/LCD.c **** uint8 LCD_initVar = 0u;
  30:Generated_Source\PSoC4/LCD.c **** 
  31:Generated_Source\PSoC4/LCD.c **** /* Buffer that holds data to be send to LCD slave */
ARM GAS  C:\Users\Kyle\AppData\Local\Temp\cc3JtO6L.s 			page 2


  32:Generated_Source\PSoC4/LCD.c **** static uint8 LCD_buff[LCD_BUFF_SIZE];
  33:Generated_Source\PSoC4/LCD.c **** 
  34:Generated_Source\PSoC4/LCD.c **** /* Need to have LCD_buffIndex of different size to avoid MISRA
  35:Generated_Source\PSoC4/LCD.c **** * warning when SCB based I2C Master is used. 
  36:Generated_Source\PSoC4/LCD.c **** */
  37:Generated_Source\PSoC4/LCD.c **** #if(LCD_IS_SCB_MASTER_USED)
  38:Generated_Source\PSoC4/LCD.c ****     /* Variable used for buffer indexing */
  39:Generated_Source\PSoC4/LCD.c ****     static uint32 LCD_buffIndex = 0u;
  40:Generated_Source\PSoC4/LCD.c ****     /* Variable stores the I2C address */
  41:Generated_Source\PSoC4/LCD.c ****     static uint32 LCD_address = LCD_DEFAULT_I2C_ADDRESS;
  42:Generated_Source\PSoC4/LCD.c **** #else
  43:Generated_Source\PSoC4/LCD.c ****     /* Variable used for buffer indexing */
  44:Generated_Source\PSoC4/LCD.c ****     static uint8 LCD_buffIndex = 0u;
  45:Generated_Source\PSoC4/LCD.c ****     /* Variable stores the I2C address */
  46:Generated_Source\PSoC4/LCD.c ****     static uint8 LCD_address = LCD_DEFAULT_I2C_ADDRESS;
  47:Generated_Source\PSoC4/LCD.c **** #endif /* (LCD_IS_SCB_MASTER_USED) */
  48:Generated_Source\PSoC4/LCD.c **** 
  49:Generated_Source\PSoC4/LCD.c **** /********************
  50:Generated_Source\PSoC4/LCD.c **** * Generated Code
  51:Generated_Source\PSoC4/LCD.c **** ********************/
  52:Generated_Source\PSoC4/LCD.c **** /* Array with command patterns */
  53:Generated_Source\PSoC4/LCD.c **** static const uint8 CYCODE LCD_cmdPatt[16u][3u] =
  54:Generated_Source\PSoC4/LCD.c **** {
  55:Generated_Source\PSoC4/LCD.c ****     /* Command pattern for writing data */
  56:Generated_Source\PSoC4/LCD.c ****     {0x01u, 0x40u, 0x00u},
  57:Generated_Source\PSoC4/LCD.c ****     /* Display on, cursor off */
  58:Generated_Source\PSoC4/LCD.c ****     {0x02u, 0x00u, 0x0Cu},
  59:Generated_Source\PSoC4/LCD.c ****     /* Display and cursor off */
  60:Generated_Source\PSoC4/LCD.c ****     {0x02u, 0x00u, 0x08u},
  61:Generated_Source\PSoC4/LCD.c ****     /* Set cursor position */
  62:Generated_Source\PSoC4/LCD.c ****     {0x01u, 0x00u, 0x80u},
  63:Generated_Source\PSoC4/LCD.c ****     /* Cursor home */
  64:Generated_Source\PSoC4/LCD.c ****     {0x02u, 0x00u, 0x02u},
  65:Generated_Source\PSoC4/LCD.c ****     /* Reset cursor position */
  66:Generated_Source\PSoC4/LCD.c ****     {0x02u, 0x00u, 0x03u},
  67:Generated_Source\PSoC4/LCD.c ****     /* Move cursor left one place */
  68:Generated_Source\PSoC4/LCD.c ****     {0x02u, 0x00u, 0x10u},
  69:Generated_Source\PSoC4/LCD.c ****     /* Move cursor right one place */
  70:Generated_Source\PSoC4/LCD.c ****     {0x02u, 0x00u, 0x14u},
  71:Generated_Source\PSoC4/LCD.c ****     /* Underline cursor on */
  72:Generated_Source\PSoC4/LCD.c ****     {0x02u, 0x00u, 0x0Eu},
  73:Generated_Source\PSoC4/LCD.c ****     /* Display - on, cursor - off, set cursor wink */
  74:Generated_Source\PSoC4/LCD.c ****     {0x02u, 0x00u, 0x0Du},
  75:Generated_Source\PSoC4/LCD.c ****     /* Display - on, cursor - off, set cursor blink */
  76:Generated_Source\PSoC4/LCD.c ****     {0x02u, 0x00u, 0x0Fu},
  77:Generated_Source\PSoC4/LCD.c ****     /* Clear screen */
  78:Generated_Source\PSoC4/LCD.c ****     {0x02u, 0x00u, 0x01u},
  79:Generated_Source\PSoC4/LCD.c ****     /* Load custom character */
  80:Generated_Source\PSoC4/LCD.c ****     {0x02u, 0x00u, 0x40u},
  81:Generated_Source\PSoC4/LCD.c ****     /* Set display for 2 lines and 16 characters */
  82:Generated_Source\PSoC4/LCD.c ****     {0x02u, 0x00u, 0x24u},
  83:Generated_Source\PSoC4/LCD.c ****     /* Move cursor/shift display right (cursor position auto increment) */
  84:Generated_Source\PSoC4/LCD.c ****     {0x02u, 0x00u, 0x06u},
  85:Generated_Source\PSoC4/LCD.c ****     /* Move cursor/shift display right (cursor position auto decrement) */
  86:Generated_Source\PSoC4/LCD.c ****     {0x02u, 0x00u, 0x04u}
  87:Generated_Source\PSoC4/LCD.c **** };
  88:Generated_Source\PSoC4/LCD.c **** 
ARM GAS  C:\Users\Kyle\AppData\Local\Temp\cc3JtO6L.s 			page 3


  89:Generated_Source\PSoC4/LCD.c **** /********************
  90:Generated_Source\PSoC4/LCD.c **** * Generated Code 
  91:Generated_Source\PSoC4/LCD.c **** ********************/
  92:Generated_Source\PSoC4/LCD.c **** /* Optional: Array with custom character set */
  93:Generated_Source\PSoC4/LCD.c **** 
  94:Generated_Source\PSoC4/LCD.c **** 
  95:Generated_Source\PSoC4/LCD.c **** 
  96:Generated_Source\PSoC4/LCD.c **** /*******************************************************************************
  97:Generated_Source\PSoC4/LCD.c **** * Function Name: LCD_Init
  98:Generated_Source\PSoC4/LCD.c **** ********************************************************************************
  99:Generated_Source\PSoC4/LCD.c **** *
 100:Generated_Source\PSoC4/LCD.c **** * Summary:
 101:Generated_Source\PSoC4/LCD.c **** *  Performs initialization required for the component's normal work.
 102:Generated_Source\PSoC4/LCD.c **** *  I2C_LCD_Init() also loads the custom character set if it was defined in the
 103:Generated_Source\PSoC4/LCD.c **** *  Configure dialog.
 104:Generated_Source\PSoC4/LCD.c **** *
 105:Generated_Source\PSoC4/LCD.c **** * Parameters:
 106:Generated_Source\PSoC4/LCD.c **** *  None
 107:Generated_Source\PSoC4/LCD.c **** *
 108:Generated_Source\PSoC4/LCD.c **** * Return:
 109:Generated_Source\PSoC4/LCD.c **** *  None
 110:Generated_Source\PSoC4/LCD.c **** *
 111:Generated_Source\PSoC4/LCD.c **** * Reentrant:
 112:Generated_Source\PSoC4/LCD.c **** *  No
 113:Generated_Source\PSoC4/LCD.c **** *
 114:Generated_Source\PSoC4/LCD.c **** *******************************************************************************/
 115:Generated_Source\PSoC4/LCD.c **** void LCD_Init(void) 
 116:Generated_Source\PSoC4/LCD.c **** {
 117:Generated_Source\PSoC4/LCD.c ****     /* Following part of code is only applicable for NXP LCDs */
 118:Generated_Source\PSoC4/LCD.c ****     #if (LCD_COMMAND_FORMAT == LCD_NXP_PCF2119X)
 119:Generated_Source\PSoC4/LCD.c ****         /* Select Extended Instruction set, 2x16 display */
 120:Generated_Source\PSoC4/LCD.c ****         LCD_SendCmd(LCD_SET_EXTENDED_FUNC);
 121:Generated_Source\PSoC4/LCD.c ****         /* Split screen configuration  */
 122:Generated_Source\PSoC4/LCD.c ****         LCD_SendCmd(LCD_SPLIT_SCREEN);
 123:Generated_Source\PSoC4/LCD.c ****         /* LCD Module format: left to right column, and top to bottom rows  */
 124:Generated_Source\PSoC4/LCD.c ****         LCD_SendCmd(LCD_DISP_CONF);
 125:Generated_Source\PSoC4/LCD.c ****         /* Icon mode not supported. Disable all icon enable settings */
 126:Generated_Source\PSoC4/LCD.c ****         LCD_SendCmd(LCD_ICON_CTL);
 127:Generated_Source\PSoC4/LCD.c ****         /* Set LCD bias voltage to 4.38 V since LCD module datasheet recommends 4.4 V */
 128:Generated_Source\PSoC4/LCD.c ****         LCD_SendCmd(LCD_VLCD_SET);
 129:Generated_Source\PSoC4/LCD.c ****         /* Select Standard Instruction set, 2x16 display */
 130:Generated_Source\PSoC4/LCD.c ****         LCD_SendCmd(LCD_FUNCTION_SET_STANDARD);
 131:Generated_Source\PSoC4/LCD.c ****     #endif /* (LCD_COMMAND_FORMAT == LCD_NXP_PCF2119X) */
 132:Generated_Source\PSoC4/LCD.c ****     
 133:Generated_Source\PSoC4/LCD.c ****     /* Configure LCD for 2 lines and 16 characters */
 134:Generated_Source\PSoC4/LCD.c ****     LCD_WriteControl(LCD_DISPLAY_2_LINES_5x10);
 135:Generated_Source\PSoC4/LCD.c ****     /* Turn on both display and cursor */
 136:Generated_Source\PSoC4/LCD.c ****     LCD_WriteControl(LCD_DISPLAY_CURSOR_ON);
 137:Generated_Source\PSoC4/LCD.c ****     /* Turn on cursor auto incrementing */
 138:Generated_Source\PSoC4/LCD.c ****     LCD_WriteControl(LCD_CURSOR_AUTO_INCR_ON);
 139:Generated_Source\PSoC4/LCD.c ****     /* Turn off cursor underlining */
 140:Generated_Source\PSoC4/LCD.c ****     LCD_WriteControl(LCD_DISPLAY_ON_CURSOR_OFF);
 141:Generated_Source\PSoC4/LCD.c ****     /* Clear the Display */
 142:Generated_Source\PSoC4/LCD.c ****     LCD_ClearDisplay();
 143:Generated_Source\PSoC4/LCD.c ****     
 144:Generated_Source\PSoC4/LCD.c ****     /* Load custom character set */
 145:Generated_Source\PSoC4/LCD.c ****     #if(LCD_CUSTOM_CHAR_SET != LCD_NONE)
ARM GAS  C:\Users\Kyle\AppData\Local\Temp\cc3JtO6L.s 			page 4


 146:Generated_Source\PSoC4/LCD.c ****         LCD_LoadCustomFonts(LCD_customFonts);
 147:Generated_Source\PSoC4/LCD.c ****     #endif /* LCD_CUSTOM_CHAR_SET != LCD_NONE */
 148:Generated_Source\PSoC4/LCD.c **** }
 149:Generated_Source\PSoC4/LCD.c **** 
 150:Generated_Source\PSoC4/LCD.c **** 
 151:Generated_Source\PSoC4/LCD.c **** /*******************************************************************************
 152:Generated_Source\PSoC4/LCD.c **** * Function Name: LCD_Enable
 153:Generated_Source\PSoC4/LCD.c **** ********************************************************************************
 154:Generated_Source\PSoC4/LCD.c **** *
 155:Generated_Source\PSoC4/LCD.c **** * Summary:
 156:Generated_Source\PSoC4/LCD.c **** *  Turns on the display.
 157:Generated_Source\PSoC4/LCD.c **** *
 158:Generated_Source\PSoC4/LCD.c **** * Parameters:
 159:Generated_Source\PSoC4/LCD.c **** *  None
 160:Generated_Source\PSoC4/LCD.c **** *
 161:Generated_Source\PSoC4/LCD.c **** * Return:
 162:Generated_Source\PSoC4/LCD.c **** *  None
 163:Generated_Source\PSoC4/LCD.c **** *
 164:Generated_Source\PSoC4/LCD.c **** * Reentrant:
 165:Generated_Source\PSoC4/LCD.c **** *  No
 166:Generated_Source\PSoC4/LCD.c **** *
 167:Generated_Source\PSoC4/LCD.c **** * Theory:
 168:Generated_Source\PSoC4/LCD.c **** *  This function has no effect when it called first time as
 169:Generated_Source\PSoC4/LCD.c **** *  LCD_Init() turns on the LCD.
 170:Generated_Source\PSoC4/LCD.c **** *
 171:Generated_Source\PSoC4/LCD.c **** *******************************************************************************/
 172:Generated_Source\PSoC4/LCD.c **** void LCD_Enable(void) 
 173:Generated_Source\PSoC4/LCD.c **** {
 174:Generated_Source\PSoC4/LCD.c ****     LCD_DisplayOn();
 175:Generated_Source\PSoC4/LCD.c **** }
 176:Generated_Source\PSoC4/LCD.c **** 
 177:Generated_Source\PSoC4/LCD.c **** 
 178:Generated_Source\PSoC4/LCD.c **** /*******************************************************************************
 179:Generated_Source\PSoC4/LCD.c **** * Function Name: LCD_Start
 180:Generated_Source\PSoC4/LCD.c **** ********************************************************************************
 181:Generated_Source\PSoC4/LCD.c **** *
 182:Generated_Source\PSoC4/LCD.c **** * Summary:
 183:Generated_Source\PSoC4/LCD.c **** *  This function initializes the LCD hardware module as follows:
 184:Generated_Source\PSoC4/LCD.c **** *       Initialize the I2C bus if it hasn't already been
 185:Generated_Source\PSoC4/LCD.c **** *       Clears the display;
 186:Generated_Source\PSoC4/LCD.c **** *       Enables auto cursor increment;
 187:Generated_Source\PSoC4/LCD.c **** *       Resets the cursor to start position;
 188:Generated_Source\PSoC4/LCD.c **** *       It also loads a custom character set to LCD if it was defined in the
 189:Generated_Source\PSoC4/LCD.c **** *  customizer's GUI.
 190:Generated_Source\PSoC4/LCD.c **** *
 191:Generated_Source\PSoC4/LCD.c **** * Parameters:
 192:Generated_Source\PSoC4/LCD.c **** *  LCD_initVar - global variable.
 193:Generated_Source\PSoC4/LCD.c **** *
 194:Generated_Source\PSoC4/LCD.c **** * Return:
 195:Generated_Source\PSoC4/LCD.c **** *  LCD_initVar - global variable.
 196:Generated_Source\PSoC4/LCD.c **** *
 197:Generated_Source\PSoC4/LCD.c **** * Reentrant:
 198:Generated_Source\PSoC4/LCD.c **** *  No
 199:Generated_Source\PSoC4/LCD.c **** *
 200:Generated_Source\PSoC4/LCD.c **** *******************************************************************************/
 201:Generated_Source\PSoC4/LCD.c **** void LCD_Start(void) 
 202:Generated_Source\PSoC4/LCD.c **** {
ARM GAS  C:\Users\Kyle\AppData\Local\Temp\cc3JtO6L.s 			page 5


 203:Generated_Source\PSoC4/LCD.c ****     /* If not initialized then perform initialization */
 204:Generated_Source\PSoC4/LCD.c ****     if(LCD_initVar == 0u)
 205:Generated_Source\PSoC4/LCD.c ****     {
 206:Generated_Source\PSoC4/LCD.c ****         LCD_Init();
 207:Generated_Source\PSoC4/LCD.c ****         LCD_initVar = 1u;
 208:Generated_Source\PSoC4/LCD.c ****     }
 209:Generated_Source\PSoC4/LCD.c **** 
 210:Generated_Source\PSoC4/LCD.c ****     /* Turn on the LCD */
 211:Generated_Source\PSoC4/LCD.c ****     LCD_Enable();
 212:Generated_Source\PSoC4/LCD.c **** }
 213:Generated_Source\PSoC4/LCD.c **** 
 214:Generated_Source\PSoC4/LCD.c **** 
 215:Generated_Source\PSoC4/LCD.c **** /*******************************************************************************
 216:Generated_Source\PSoC4/LCD.c **** * Function Name: LCD_Stop
 217:Generated_Source\PSoC4/LCD.c **** ********************************************************************************
 218:Generated_Source\PSoC4/LCD.c **** *
 219:Generated_Source\PSoC4/LCD.c **** * Summary:
 220:Generated_Source\PSoC4/LCD.c **** *  Turns off the display of the LCD screen but does not stop the I2C Master
 221:Generated_Source\PSoC4/LCD.c **** *  component.
 222:Generated_Source\PSoC4/LCD.c **** *
 223:Generated_Source\PSoC4/LCD.c **** * Parameters:
 224:Generated_Source\PSoC4/LCD.c **** *  None
 225:Generated_Source\PSoC4/LCD.c **** *
 226:Generated_Source\PSoC4/LCD.c **** * Return:
 227:Generated_Source\PSoC4/LCD.c **** *  None
 228:Generated_Source\PSoC4/LCD.c **** *
 229:Generated_Source\PSoC4/LCD.c **** * Reentrant:
 230:Generated_Source\PSoC4/LCD.c **** *  No
 231:Generated_Source\PSoC4/LCD.c **** *
 232:Generated_Source\PSoC4/LCD.c **** *******************************************************************************/
 233:Generated_Source\PSoC4/LCD.c **** void LCD_Stop(void) 
 234:Generated_Source\PSoC4/LCD.c **** {
 235:Generated_Source\PSoC4/LCD.c ****     LCD_DisplayOff();
 236:Generated_Source\PSoC4/LCD.c **** }
 237:Generated_Source\PSoC4/LCD.c **** 
 238:Generated_Source\PSoC4/LCD.c **** 
 239:Generated_Source\PSoC4/LCD.c **** /*******************************************************************************
 240:Generated_Source\PSoC4/LCD.c **** *  Function Name: LCD_Position
 241:Generated_Source\PSoC4/LCD.c **** ********************************************************************************
 242:Generated_Source\PSoC4/LCD.c **** *
 243:Generated_Source\PSoC4/LCD.c **** * Summary:
 244:Generated_Source\PSoC4/LCD.c **** *  Moves the cursor to the location specified by arguments row and column.
 245:Generated_Source\PSoC4/LCD.c **** *
 246:Generated_Source\PSoC4/LCD.c **** * Parameters:
 247:Generated_Source\PSoC4/LCD.c **** *  row:     The row number at which to position the cursor. Minimum value is
 248:Generated_Source\PSoC4/LCD.c **** *           zero.
 249:Generated_Source\PSoC4/LCD.c **** *  column:  The column number at which to position the cursor. Minimum value is
 250:Generated_Source\PSoC4/LCD.c **** *           zero.
 251:Generated_Source\PSoC4/LCD.c **** *
 252:Generated_Source\PSoC4/LCD.c **** * Return:
 253:Generated_Source\PSoC4/LCD.c **** *  None
 254:Generated_Source\PSoC4/LCD.c **** *
 255:Generated_Source\PSoC4/LCD.c **** * Reentrant:
 256:Generated_Source\PSoC4/LCD.c **** *  No
 257:Generated_Source\PSoC4/LCD.c **** *
 258:Generated_Source\PSoC4/LCD.c **** *******************************************************************************/
 259:Generated_Source\PSoC4/LCD.c **** void LCD_Position(uint8 row, uint8 column) 
ARM GAS  C:\Users\Kyle\AppData\Local\Temp\cc3JtO6L.s 			page 6


 260:Generated_Source\PSoC4/LCD.c **** {
 261:Generated_Source\PSoC4/LCD.c ****     /* Write command pattern for "Set cursor position" to buffer */
 262:Generated_Source\PSoC4/LCD.c ****     LCD_WrCntrlPatt(LCD_DDRAM_0_IDX);
 263:Generated_Source\PSoC4/LCD.c **** 
 264:Generated_Source\PSoC4/LCD.c ****     #if(LCD_LENGTH_2_BYTES == LCD_DDRAM_0_DATA_LEN)
 265:Generated_Source\PSoC4/LCD.c ****         /* In case when there two bytes of data for "Set cursor position" it is
 266:Generated_Source\PSoC4/LCD.c ****         * required to send both row and column. The numeration of rows and 
 267:Generated_Source\PSoC4/LCD.c ****         * columns starts from '1' so the row and column should be incremented.
 268:Generated_Source\PSoC4/LCD.c ****         */
 269:Generated_Source\PSoC4/LCD.c ****         LCD_WrDataToBuff(column + 1u);
 270:Generated_Source\PSoC4/LCD.c ****         LCD_WrDataToBuff(row + 1u);
 271:Generated_Source\PSoC4/LCD.c ****     #else
 272:Generated_Source\PSoC4/LCD.c ****         /* Position is sent as one byte so it is required to calculate the position */
 273:Generated_Source\PSoC4/LCD.c ****         switch (row)
 274:Generated_Source\PSoC4/LCD.c ****         {
 275:Generated_Source\PSoC4/LCD.c ****             case (uint8) 0u:
 276:Generated_Source\PSoC4/LCD.c ****                 /* To avoid MISRA warnig */
 277:Generated_Source\PSoC4/LCD.c ****                 #if (LCD_COMMAND_FORMAT == LCD_NXP_PCF2119X)
 278:Generated_Source\PSoC4/LCD.c ****                     LCD_WrDataToBuff(LCD_ROW_0_START + column);
 279:Generated_Source\PSoC4/LCD.c ****                 #else
 280:Generated_Source\PSoC4/LCD.c ****                     LCD_WrDataToBuff(column);
 281:Generated_Source\PSoC4/LCD.c ****                 #endif /* (LCD_COMMAND_FORMAT == LCD_NXP_PCF2119X) */
 282:Generated_Source\PSoC4/LCD.c ****                 
 283:Generated_Source\PSoC4/LCD.c ****                 break;
 284:Generated_Source\PSoC4/LCD.c ****             
 285:Generated_Source\PSoC4/LCD.c ****             case (uint8) 1u:
 286:Generated_Source\PSoC4/LCD.c ****                 LCD_WrDataToBuff(LCD_ROW_1_START + column);
 287:Generated_Source\PSoC4/LCD.c ****                 break;
 288:Generated_Source\PSoC4/LCD.c ****             
 289:Generated_Source\PSoC4/LCD.c ****             case (uint8) 2u:
 290:Generated_Source\PSoC4/LCD.c ****                 LCD_WrDataToBuff(LCD_ROW_2_START + column);
 291:Generated_Source\PSoC4/LCD.c ****                 break;
 292:Generated_Source\PSoC4/LCD.c ****             
 293:Generated_Source\PSoC4/LCD.c ****             case (uint8) 3u:
 294:Generated_Source\PSoC4/LCD.c ****                 LCD_WrDataToBuff(LCD_ROW_3_START + column);
 295:Generated_Source\PSoC4/LCD.c ****                 break;
 296:Generated_Source\PSoC4/LCD.c ****             
 297:Generated_Source\PSoC4/LCD.c ****             default:
 298:Generated_Source\PSoC4/LCD.c ****                 /* if default case is hit, invalid row argument was passed.*/
 299:Generated_Source\PSoC4/LCD.c ****                 break;
 300:Generated_Source\PSoC4/LCD.c ****         }        
 301:Generated_Source\PSoC4/LCD.c ****     #endif /* (LCD_LENGTH_2_BYTES == LCD_SET_POS_DATA_LEN) */
 302:Generated_Source\PSoC4/LCD.c **** 
 303:Generated_Source\PSoC4/LCD.c ****     /* Send data to LCD and wait when transaction complete */
 304:Generated_Source\PSoC4/LCD.c ****     LCD_SendSequence();
 305:Generated_Source\PSoC4/LCD.c **** }
 306:Generated_Source\PSoC4/LCD.c **** 
 307:Generated_Source\PSoC4/LCD.c **** 
 308:Generated_Source\PSoC4/LCD.c **** /*******************************************************************************
 309:Generated_Source\PSoC4/LCD.c **** *  Function Name: LCD_WriteData
 310:Generated_Source\PSoC4/LCD.c **** ********************************************************************************
 311:Generated_Source\PSoC4/LCD.c **** *
 312:Generated_Source\PSoC4/LCD.c **** * Summary:
 313:Generated_Source\PSoC4/LCD.c **** *  Writes data to the LCD RAM in the current position. Upon write completion,
 314:Generated_Source\PSoC4/LCD.c **** *  the position is incremented or decremented depending on the entry mode
 315:Generated_Source\PSoC4/LCD.c **** *  specified.
 316:Generated_Source\PSoC4/LCD.c **** *
ARM GAS  C:\Users\Kyle\AppData\Local\Temp\cc3JtO6L.s 			page 7


 317:Generated_Source\PSoC4/LCD.c **** * Parameters:
 318:Generated_Source\PSoC4/LCD.c **** *  dByte:  The byte to be written to the LCD module.
 319:Generated_Source\PSoC4/LCD.c **** *
 320:Generated_Source\PSoC4/LCD.c **** * Return:
 321:Generated_Source\PSoC4/LCD.c **** *  None.
 322:Generated_Source\PSoC4/LCD.c **** *
 323:Generated_Source\PSoC4/LCD.c **** * Reentrant:
 324:Generated_Source\PSoC4/LCD.c **** *  No
 325:Generated_Source\PSoC4/LCD.c **** *
 326:Generated_Source\PSoC4/LCD.c **** *******************************************************************************/
 327:Generated_Source\PSoC4/LCD.c **** void LCD_WriteData(uint8 dByte) 
 328:Generated_Source\PSoC4/LCD.c **** {
 329:Generated_Source\PSoC4/LCD.c ****     /* Send required control byte value to address data register */
 330:Generated_Source\PSoC4/LCD.c ****     LCD_WrCntrlPatt(LCD_WRITE_DATA_IDX);
 331:Generated_Source\PSoC4/LCD.c **** 
 332:Generated_Source\PSoC4/LCD.c ****     /* Add byte of data to buffer */
 333:Generated_Source\PSoC4/LCD.c ****     LCD_WrDataToBuff(dByte);
 334:Generated_Source\PSoC4/LCD.c **** 
 335:Generated_Source\PSoC4/LCD.c ****     /* Send data to LCD and wait when transaction complete */
 336:Generated_Source\PSoC4/LCD.c ****     LCD_SendSequence();
 337:Generated_Source\PSoC4/LCD.c **** }
 338:Generated_Source\PSoC4/LCD.c **** 
 339:Generated_Source\PSoC4/LCD.c **** 
 340:Generated_Source\PSoC4/LCD.c **** /*******************************************************************************
 341:Generated_Source\PSoC4/LCD.c **** *  Function Name: LCD_WrDataToBuff
 342:Generated_Source\PSoC4/LCD.c **** ********************************************************************************
 343:Generated_Source\PSoC4/LCD.c **** *
 344:Generated_Source\PSoC4/LCD.c **** * Summary:
 345:Generated_Source\PSoC4/LCD.c **** *  Writes a byte of data to the display buffer.
 346:Generated_Source\PSoC4/LCD.c **** *
 347:Generated_Source\PSoC4/LCD.c **** * Parameters:
 348:Generated_Source\PSoC4/LCD.c **** *  nibble:  the byte containing nibble in least significant nibble to be written
 349:Generated_Source\PSoC4/LCD.c **** *           to the LCD module.
 350:Generated_Source\PSoC4/LCD.c **** *
 351:Generated_Source\PSoC4/LCD.c **** * Return:
 352:Generated_Source\PSoC4/LCD.c **** *  None
 353:Generated_Source\PSoC4/LCD.c **** *
 354:Generated_Source\PSoC4/LCD.c **** * Reentrant:
 355:Generated_Source\PSoC4/LCD.c **** *  No
 356:Generated_Source\PSoC4/LCD.c **** *
 357:Generated_Source\PSoC4/LCD.c **** *******************************************************************************/
 358:Generated_Source\PSoC4/LCD.c **** static void LCD_WrDataToBuff(uint8 dByte) CYREENTRANT
 359:Generated_Source\PSoC4/LCD.c **** {
  27              		.loc 1 359 0
  28              		.cfi_startproc
  29              		@ args = 0, pretend = 0, frame = 0
  30              		@ frame_needed = 0, uses_anonymous_args = 0
  31              		@ link register save eliminated.
  32              	.LVL0:
 360:Generated_Source\PSoC4/LCD.c ****     /* Put one byte of data to buffer at location of LCD_buffIndex */
 361:Generated_Source\PSoC4/LCD.c ****     LCD_buff[LCD_buffIndex] = dByte;
  33              		.loc 1 361 0
  34 0000 034A     		ldr	r2, .L2
  35 0002 1368     		ldr	r3, [r2]
  36 0004 D118     		adds	r1, r2, r3
  37 0006 0871     		strb	r0, [r1, #4]
 362:Generated_Source\PSoC4/LCD.c ****     /* Increment LCD_buffIndex to point to next free position */
ARM GAS  C:\Users\Kyle\AppData\Local\Temp\cc3JtO6L.s 			page 8


 363:Generated_Source\PSoC4/LCD.c ****     LCD_buffIndex++;
  38              		.loc 1 363 0
  39 0008 0133     		adds	r3, r3, #1
  40 000a 1360     		str	r3, [r2]
 364:Generated_Source\PSoC4/LCD.c **** }
  41              		.loc 1 364 0
  42              		@ sp needed
  43 000c 7047     		bx	lr
  44              	.L3:
  45 000e C046     		.align	2
  46              	.L2:
  47 0010 00000000 		.word	.LANCHOR0
  48              		.cfi_endproc
  49              	.LFE7:
  50              		.size	LCD_WrDataToBuff, .-LCD_WrDataToBuff
  51              		.section	.text.LCD_WrCntrlPatt,"ax",%progbits
  52              		.align	2
  53              		.code	16
  54              		.thumb_func
  55              		.type	LCD_WrCntrlPatt, %function
  56              	LCD_WrCntrlPatt:
  57              	.LFB9:
 365:Generated_Source\PSoC4/LCD.c **** 
 366:Generated_Source\PSoC4/LCD.c **** 
 367:Generated_Source\PSoC4/LCD.c **** /*******************************************************************************
 368:Generated_Source\PSoC4/LCD.c **** *  Function Name: LCD_WriteControl
 369:Generated_Source\PSoC4/LCD.c **** ********************************************************************************
 370:Generated_Source\PSoC4/LCD.c **** *
 371:Generated_Source\PSoC4/LCD.c **** * Summary:
 372:Generated_Source\PSoC4/LCD.c **** *  Writes a command byte to the LCD module. Different LCD models can have their
 373:Generated_Source\PSoC4/LCD.c **** *  own commands. Review the specific LCD datasheet for commands valid for that
 374:Generated_Source\PSoC4/LCD.c **** *  model.
 375:Generated_Source\PSoC4/LCD.c **** *
 376:Generated_Source\PSoC4/LCD.c **** * Parameters:
 377:Generated_Source\PSoC4/LCD.c **** *  cByte:   An 8-bit value representing the command to be loaded into the command
 378:Generated_Source\PSoC4/LCD.c **** *  register of the LCD module. Valid command parameters are specified in the
 379:Generated_Source\PSoC4/LCD.c **** *  table below:
 380:Generated_Source\PSoC4/LCD.c **** *   LCD_CLEAR_DISPLAY          Clear display.
 381:Generated_Source\PSoC4/LCD.c **** *   LCD_CURSOR_HOME            Return cursor and LCD to home
 382:Generated_Source\PSoC4/LCD.c **** *                                           position.
 383:Generated_Source\PSoC4/LCD.c **** *   LCD_SET_CURSOR_POSITION    Set position of cursor.
 384:Generated_Source\PSoC4/LCD.c **** *   LCD_DISPLAY_CURSOR_OFF     Disable display and cursor.
 385:Generated_Source\PSoC4/LCD.c **** *   LCD_DISPLAY_CURSOR_ON      Enable display and cursor.
 386:Generated_Source\PSoC4/LCD.c **** *   LCD_DISPLAY_ON_CURSOR_OFF
 387:Generated_Source\PSoC4/LCD.c **** *   LCD_DISPLAY_ON             Enable display, cursor off.
 388:Generated_Source\PSoC4/LCD.c **** *   LCD_CURSOR_BLINKING_ON     Enable display, cursor on, set
 389:Generated_Source\PSoC4/LCD.c **** *                                           cursor blink.
 390:Generated_Source\PSoC4/LCD.c **** *   LCD_CURSOR_BLINKING_OFF    Enable display, cursor on, cursor
 391:Generated_Source\PSoC4/LCD.c **** *                                           blinking off.
 392:Generated_Source\PSoC4/LCD.c **** *   LCD_SET_CGRAM_ADDR         Set position to the specific
 393:Generated_Source\PSoC4/LCD.c **** *                                           address in CGRAM (used for loading
 394:Generated_Source\PSoC4/LCD.c **** *                                           custom characters).
 395:Generated_Source\PSoC4/LCD.c **** *   LCD_CURSOR_AUTO_INCR_ON    Enable auto increment of cursor
 396:Generated_Source\PSoC4/LCD.c **** *                                           position.
 397:Generated_Source\PSoC4/LCD.c **** *   LCD_DISPLAY_2_LINES_16     Set display to be 2 lines 16
 398:Generated_Source\PSoC4/LCD.c **** *                                           characters.
 399:Generated_Source\PSoC4/LCD.c **** *
ARM GAS  C:\Users\Kyle\AppData\Local\Temp\cc3JtO6L.s 			page 9


 400:Generated_Source\PSoC4/LCD.c **** * Return:
 401:Generated_Source\PSoC4/LCD.c **** *  None
 402:Generated_Source\PSoC4/LCD.c **** *
 403:Generated_Source\PSoC4/LCD.c **** * Reentrant:
 404:Generated_Source\PSoC4/LCD.c **** *  No
 405:Generated_Source\PSoC4/LCD.c **** *
 406:Generated_Source\PSoC4/LCD.c **** *******************************************************************************/
 407:Generated_Source\PSoC4/LCD.c **** void LCD_WriteControl(uint8 cByte) 
 408:Generated_Source\PSoC4/LCD.c **** {
 409:Generated_Source\PSoC4/LCD.c ****     uint8 cmdIndx = 0u;
 410:Generated_Source\PSoC4/LCD.c ****     
 411:Generated_Source\PSoC4/LCD.c ****     while(cmdIndx < LCD_NUM_COMMANDS)
 412:Generated_Source\PSoC4/LCD.c ****     {   
 413:Generated_Source\PSoC4/LCD.c ****         if (cByte == LCD_cmdPatt[cmdIndx][LCD_COMMAND_BYTE_INDEX])
 414:Generated_Source\PSoC4/LCD.c ****         {
 415:Generated_Source\PSoC4/LCD.c ****             /* Fill control pattern based on found index */
 416:Generated_Source\PSoC4/LCD.c ****             LCD_WrCntrlPatt(cmdIndx);
 417:Generated_Source\PSoC4/LCD.c **** 
 418:Generated_Source\PSoC4/LCD.c ****             /* Send data to LCD and wait when transaction complete */
 419:Generated_Source\PSoC4/LCD.c ****             LCD_SendSequence();
 420:Generated_Source\PSoC4/LCD.c **** 
 421:Generated_Source\PSoC4/LCD.c ****             /* Following commands require 1.5 ms delay to execute */
 422:Generated_Source\PSoC4/LCD.c ****             switch(cByte)
 423:Generated_Source\PSoC4/LCD.c ****             {
 424:Generated_Source\PSoC4/LCD.c ****                 case LCD_CLEAR_DISPLAY :
 425:Generated_Source\PSoC4/LCD.c ****                 case LCD_CURSOR_HOME :
 426:Generated_Source\PSoC4/LCD.c ****                 case LCD_DISPLAY_CURSOR_ON :
 427:Generated_Source\PSoC4/LCD.c ****                 case LCD_DISPLAY_CURSOR_OFF :
 428:Generated_Source\PSoC4/LCD.c ****                     CyDelayUs(LCD_CMOMMAND_DELAY);
 429:Generated_Source\PSoC4/LCD.c ****                     break;
 430:Generated_Source\PSoC4/LCD.c ****                 default:
 431:Generated_Source\PSoC4/LCD.c ****                     break;
 432:Generated_Source\PSoC4/LCD.c ****             }
 433:Generated_Source\PSoC4/LCD.c ****             /* Command index was found - break while() loop */
 434:Generated_Source\PSoC4/LCD.c ****             break;
 435:Generated_Source\PSoC4/LCD.c ****         }
 436:Generated_Source\PSoC4/LCD.c ****         /* Increment command pattern index */
 437:Generated_Source\PSoC4/LCD.c ****         cmdIndx++;
 438:Generated_Source\PSoC4/LCD.c ****     } 
 439:Generated_Source\PSoC4/LCD.c **** }
 440:Generated_Source\PSoC4/LCD.c **** 
 441:Generated_Source\PSoC4/LCD.c **** 
 442:Generated_Source\PSoC4/LCD.c **** /*******************************************************************************
 443:Generated_Source\PSoC4/LCD.c **** *  Function Name: LCD_WrCntrlPatt
 444:Generated_Source\PSoC4/LCD.c **** ********************************************************************************
 445:Generated_Source\PSoC4/LCD.c **** *
 446:Generated_Source\PSoC4/LCD.c **** * Summary:
 447:Generated_Source\PSoC4/LCD.c **** *  Writes a control pattern to the buffer that will be later send to the LCD
 448:Generated_Source\PSoC4/LCD.c **** *  module.
 449:Generated_Source\PSoC4/LCD.c **** *
 450:Generated_Source\PSoC4/LCD.c **** * Parameters:
 451:Generated_Source\PSoC4/LCD.c **** *  cmdIndex: Index of the command pattern in the look-up array.
 452:Generated_Source\PSoC4/LCD.c **** *
 453:Generated_Source\PSoC4/LCD.c **** * Return:
 454:Generated_Source\PSoC4/LCD.c **** *  None
 455:Generated_Source\PSoC4/LCD.c **** *
 456:Generated_Source\PSoC4/LCD.c **** * Reentrant:
ARM GAS  C:\Users\Kyle\AppData\Local\Temp\cc3JtO6L.s 			page 10


 457:Generated_Source\PSoC4/LCD.c **** *  No
 458:Generated_Source\PSoC4/LCD.c **** *
 459:Generated_Source\PSoC4/LCD.c **** *******************************************************************************/
 460:Generated_Source\PSoC4/LCD.c **** static void LCD_WrCntrlPatt(uint8 cmdIndex) CYREENTRANT
 461:Generated_Source\PSoC4/LCD.c **** {
  58              		.loc 1 461 0
  59              		.cfi_startproc
  60              		@ args = 0, pretend = 0, frame = 0
  61              		@ frame_needed = 0, uses_anonymous_args = 0
  62              	.LVL1:
  63 0000 10B5     		push	{r4, lr}
  64              		.cfi_def_cfa_offset 8
  65              		.cfi_offset 4, -8
  66              		.cfi_offset 14, -4
  67              	.LVL2:
 462:Generated_Source\PSoC4/LCD.c ****     /* Need to have index 'i' of different size to avoid MISRA
 463:Generated_Source\PSoC4/LCD.c ****     * warning when SCB based I2C Master is used. 
 464:Generated_Source\PSoC4/LCD.c ****     */
 465:Generated_Source\PSoC4/LCD.c ****     #if(LCD_IS_SCB_MASTER_USED)
 466:Generated_Source\PSoC4/LCD.c ****         uint32 i;
 467:Generated_Source\PSoC4/LCD.c ****     #else
 468:Generated_Source\PSoC4/LCD.c ****         uint8 i;
 469:Generated_Source\PSoC4/LCD.c ****     #endif /* (LCD_IS_SCB_MASTER_USED) */
 470:Generated_Source\PSoC4/LCD.c **** 
 471:Generated_Source\PSoC4/LCD.c ****     /* Fill buffer with command pattern */
 472:Generated_Source\PSoC4/LCD.c ****     for(i = 1u; i <= LCD_cmdPatt[cmdIndex][0u]; i++)
  68              		.loc 1 472 0
  69 0002 0123     		movs	r3, #1
  70 0004 09E0     		b	.L5
  71              	.LVL3:
  72              	.L6:
 473:Generated_Source\PSoC4/LCD.c ****     {
 474:Generated_Source\PSoC4/LCD.c ****         LCD_buff[i - 1u] =  LCD_cmdPatt[cmdIndex][i];
  73              		.loc 1 474 0 discriminator 3
  74 0006 591E     		subs	r1, r3, #1
  75 0008 4200     		lsls	r2, r0, #1
  76 000a 1218     		adds	r2, r2, r0
  77 000c 084C     		ldr	r4, .L7
  78 000e A218     		adds	r2, r4, r2
  79 0010 D45C     		ldrb	r4, [r2, r3]
  80 0012 084A     		ldr	r2, .L7+4
  81 0014 5218     		adds	r2, r2, r1
  82 0016 1471     		strb	r4, [r2, #4]
 472:Generated_Source\PSoC4/LCD.c ****     {
  83              		.loc 1 472 0 discriminator 3
  84 0018 0133     		adds	r3, r3, #1
  85              	.LVL4:
  86              	.L5:
 472:Generated_Source\PSoC4/LCD.c ****     {
  87              		.loc 1 472 0 is_stmt 0 discriminator 1
  88 001a 4200     		lsls	r2, r0, #1
  89 001c 1218     		adds	r2, r2, r0
  90 001e 0449     		ldr	r1, .L7
  91 0020 525C     		ldrb	r2, [r2, r1]
  92 0022 9342     		cmp	r3, r2
  93 0024 EFD9     		bls	.L6
 475:Generated_Source\PSoC4/LCD.c ****     }
ARM GAS  C:\Users\Kyle\AppData\Local\Temp\cc3JtO6L.s 			page 11


 476:Generated_Source\PSoC4/LCD.c **** 
 477:Generated_Source\PSoC4/LCD.c ****     /* Set index to point on next free position in buffer */
 478:Generated_Source\PSoC4/LCD.c ****     LCD_buffIndex = i - 1u;
  94              		.loc 1 478 0 is_stmt 1
  95 0026 013B     		subs	r3, r3, #1
  96              	.LVL5:
  97 0028 024A     		ldr	r2, .L7+4
  98 002a 1360     		str	r3, [r2]
 479:Generated_Source\PSoC4/LCD.c **** }
  99              		.loc 1 479 0
 100              		@ sp needed
 101 002c 10BD     		pop	{r4, pc}
 102              	.L8:
 103 002e C046     		.align	2
 104              	.L7:
 105 0030 00000000 		.word	.LANCHOR1
 106 0034 00000000 		.word	.LANCHOR0
 107              		.cfi_endproc
 108              	.LFE9:
 109              		.size	LCD_WrCntrlPatt, .-LCD_WrCntrlPatt
 110              		.section	.text.LCD_SendSequence,"ax",%progbits
 111              		.align	2
 112              		.code	16
 113              		.thumb_func
 114              		.type	LCD_SendSequence, %function
 115              	LCD_SendSequence:
 116              	.LFB10:
 480:Generated_Source\PSoC4/LCD.c **** 
 481:Generated_Source\PSoC4/LCD.c **** 
 482:Generated_Source\PSoC4/LCD.c **** /*******************************************************************************
 483:Generated_Source\PSoC4/LCD.c **** *  Function Name: LCD_SendSequence
 484:Generated_Source\PSoC4/LCD.c **** ********************************************************************************
 485:Generated_Source\PSoC4/LCD.c **** *
 486:Generated_Source\PSoC4/LCD.c **** * Summary:
 487:Generated_Source\PSoC4/LCD.c **** *  Sends the content of the buffer to the LCD module and waits while transaction
 488:Generated_Source\PSoC4/LCD.c **** *  completes. In the end resets index to point to the start of the buffer.
 489:Generated_Source\PSoC4/LCD.c **** *
 490:Generated_Source\PSoC4/LCD.c **** * Parameters:
 491:Generated_Source\PSoC4/LCD.c **** *  None
 492:Generated_Source\PSoC4/LCD.c **** *
 493:Generated_Source\PSoC4/LCD.c **** * Return:
 494:Generated_Source\PSoC4/LCD.c **** *  None
 495:Generated_Source\PSoC4/LCD.c **** *
 496:Generated_Source\PSoC4/LCD.c **** * Reentrant:
 497:Generated_Source\PSoC4/LCD.c **** *  No
 498:Generated_Source\PSoC4/LCD.c **** *
 499:Generated_Source\PSoC4/LCD.c **** *******************************************************************************/
 500:Generated_Source\PSoC4/LCD.c **** static void LCD_SendSequence(void) CYREENTRANT
 501:Generated_Source\PSoC4/LCD.c **** {
 117              		.loc 1 501 0
 118              		.cfi_startproc
 119              		@ args = 0, pretend = 0, frame = 0
 120              		@ frame_needed = 0, uses_anonymous_args = 0
 121 0000 10B5     		push	{r4, lr}
 122              		.cfi_def_cfa_offset 8
 123              		.cfi_offset 4, -8
 124              		.cfi_offset 14, -4
ARM GAS  C:\Users\Kyle\AppData\Local\Temp\cc3JtO6L.s 			page 12


 502:Generated_Source\PSoC4/LCD.c ****     /* Send command pattern to LCD */
 503:Generated_Source\PSoC4/LCD.c ****     (void) LCD_MasterWriteBuf(LCD_address,
 125              		.loc 1 503 0
 126 0002 0749     		ldr	r1, .L11
 127 0004 04C9     		ldmia	r1!, {r2}
 128 0006 074B     		ldr	r3, .L11+4
 129 0008 1868     		ldr	r0, [r3]
 130 000a 0023     		movs	r3, #0
 131 000c FFF7FEFF 		bl	I2C_I2CMasterWriteBuf
 132              	.LVL6:
 133              	.L10:
 504:Generated_Source\PSoC4/LCD.c ****                                            LCD_buff,
 505:Generated_Source\PSoC4/LCD.c ****                                            LCD_buffIndex,
 506:Generated_Source\PSoC4/LCD.c ****                                            LCD_MODE_COMPLETE_XFER);
 507:Generated_Source\PSoC4/LCD.c **** 
 508:Generated_Source\PSoC4/LCD.c ****     while(0u == (LCD_MasterReadStatus() & LCD_WRITE_COMPLETE))
 134              		.loc 1 508 0 discriminator 1
 135 0010 FFF7FEFF 		bl	I2C_I2CMasterStatus
 136              	.LVL7:
 137 0014 8307     		lsls	r3, r0, #30
 138 0016 FBD5     		bpl	.L10
 509:Generated_Source\PSoC4/LCD.c ****     {
 510:Generated_Source\PSoC4/LCD.c ****         /* Wait until I2C Master finishes transaction */
 511:Generated_Source\PSoC4/LCD.c ****     }
 512:Generated_Source\PSoC4/LCD.c **** 
 513:Generated_Source\PSoC4/LCD.c ****     /* Reset buffer index */
 514:Generated_Source\PSoC4/LCD.c ****     LCD_buffIndex = 0u;
 139              		.loc 1 514 0
 140 0018 0022     		movs	r2, #0
 141 001a 014B     		ldr	r3, .L11
 142 001c 1A60     		str	r2, [r3]
 515:Generated_Source\PSoC4/LCD.c **** }
 143              		.loc 1 515 0
 144              		@ sp needed
 145 001e 10BD     		pop	{r4, pc}
 146              	.L12:
 147              		.align	2
 148              	.L11:
 149 0020 00000000 		.word	.LANCHOR0
 150 0024 00000000 		.word	.LANCHOR2
 151              		.cfi_endproc
 152              	.LFE10:
 153              		.size	LCD_SendSequence, .-LCD_SendSequence
 154              		.section	.text.LCD_SendCmd,"ax",%progbits
 155              		.align	2
 156              		.code	16
 157              		.thumb_func
 158              		.type	LCD_SendCmd, %function
 159              	LCD_SendCmd:
 160              	.LFB19:
 516:Generated_Source\PSoC4/LCD.c **** 
 517:Generated_Source\PSoC4/LCD.c **** 
 518:Generated_Source\PSoC4/LCD.c **** /*******************************************************************************
 519:Generated_Source\PSoC4/LCD.c **** * Function Name: LCD_HandleCustomCommand
 520:Generated_Source\PSoC4/LCD.c **** ********************************************************************************
 521:Generated_Source\PSoC4/LCD.c **** *
 522:Generated_Source\PSoC4/LCD.c **** * Summary:
ARM GAS  C:\Users\Kyle\AppData\Local\Temp\cc3JtO6L.s 			page 13


 523:Generated_Source\PSoC4/LCD.c **** *  This command adds a support of sending custom commands with parameters.
 524:Generated_Source\PSoC4/LCD.c **** *
 525:Generated_Source\PSoC4/LCD.c **** * Parameters:
 526:Generated_Source\PSoC4/LCD.c **** *  uint8 cmdId: Command code.
 527:Generated_Source\PSoC4/LCD.c **** *  uint8 dataLength: The length of data to be send for this command.
 528:Generated_Source\PSoC4/LCD.c **** *  uint8 cmdData[]: The data to be send to I2C LCD.
 529:Generated_Source\PSoC4/LCD.c **** *
 530:Generated_Source\PSoC4/LCD.c **** * Return:
 531:Generated_Source\PSoC4/LCD.c **** *  None
 532:Generated_Source\PSoC4/LCD.c **** *
 533:Generated_Source\PSoC4/LCD.c **** * Reentrant:
 534:Generated_Source\PSoC4/LCD.c **** *  No
 535:Generated_Source\PSoC4/LCD.c **** *
 536:Generated_Source\PSoC4/LCD.c **** *******************************************************************************/
 537:Generated_Source\PSoC4/LCD.c **** void LCD_HandleCustomCommand(uint8 cmdId, uint8 dataLength, uint8 const cmdData[])
 538:Generated_Source\PSoC4/LCD.c ****                                                         
 539:Generated_Source\PSoC4/LCD.c **** {
 540:Generated_Source\PSoC4/LCD.c ****     uint8 i;
 541:Generated_Source\PSoC4/LCD.c ****     uint8 ch;
 542:Generated_Source\PSoC4/LCD.c ****     uint8 cmdIndx = 0u;
 543:Generated_Source\PSoC4/LCD.c ****     
 544:Generated_Source\PSoC4/LCD.c ****     while(cmdIndx < LCD_NUM_COMMANDS)
 545:Generated_Source\PSoC4/LCD.c ****     {   
 546:Generated_Source\PSoC4/LCD.c ****         if (cmdId == LCD_cmdPatt[cmdIndx][LCD_COMMAND_BYTE_INDEX])
 547:Generated_Source\PSoC4/LCD.c ****         {
 548:Generated_Source\PSoC4/LCD.c ****              /* Write control pattern for specific command */
 549:Generated_Source\PSoC4/LCD.c ****             LCD_WrCntrlPatt(cmdIndx);
 550:Generated_Source\PSoC4/LCD.c **** 
 551:Generated_Source\PSoC4/LCD.c ****             for(i = 0u; i < dataLength; i++)
 552:Generated_Source\PSoC4/LCD.c ****             {
 553:Generated_Source\PSoC4/LCD.c ****                 /* Get next byte from array of data */
 554:Generated_Source\PSoC4/LCD.c ****                 ch = cmdData[i];
 555:Generated_Source\PSoC4/LCD.c **** 
 556:Generated_Source\PSoC4/LCD.c ****                 /* Add current byte to buffer */
 557:Generated_Source\PSoC4/LCD.c ****                 LCD_WrDataToBuff((uint8) ch);
 558:Generated_Source\PSoC4/LCD.c ****             }
 559:Generated_Source\PSoC4/LCD.c **** 
 560:Generated_Source\PSoC4/LCD.c ****             /* Send data to LCD and wait when transaction completes */
 561:Generated_Source\PSoC4/LCD.c ****             LCD_SendSequence();
 562:Generated_Source\PSoC4/LCD.c ****             /* The command index was found - break while() loop */
 563:Generated_Source\PSoC4/LCD.c ****             break;
 564:Generated_Source\PSoC4/LCD.c ****         }
 565:Generated_Source\PSoC4/LCD.c ****         /* Increment command pattern index */
 566:Generated_Source\PSoC4/LCD.c ****         cmdIndx++;
 567:Generated_Source\PSoC4/LCD.c ****     } 
 568:Generated_Source\PSoC4/LCD.c **** }
 569:Generated_Source\PSoC4/LCD.c **** 
 570:Generated_Source\PSoC4/LCD.c **** 
 571:Generated_Source\PSoC4/LCD.c **** /*******************************************************************************
 572:Generated_Source\PSoC4/LCD.c **** * Function Name: LCD_HandleOneByteCommand
 573:Generated_Source\PSoC4/LCD.c **** ********************************************************************************
 574:Generated_Source\PSoC4/LCD.c **** *
 575:Generated_Source\PSoC4/LCD.c **** * Summary:
 576:Generated_Source\PSoC4/LCD.c **** *  This command adds a support of sending custom commands with 1 byte parameter.
 577:Generated_Source\PSoC4/LCD.c **** *
 578:Generated_Source\PSoC4/LCD.c **** * Parameters:
 579:Generated_Source\PSoC4/LCD.c **** *  uint8 cmdId: Command code.
ARM GAS  C:\Users\Kyle\AppData\Local\Temp\cc3JtO6L.s 			page 14


 580:Generated_Source\PSoC4/LCD.c **** *  uint8 cmdByte: One byte of data to be send to I2C LCD.
 581:Generated_Source\PSoC4/LCD.c **** *
 582:Generated_Source\PSoC4/LCD.c **** * Return:
 583:Generated_Source\PSoC4/LCD.c **** *  None
 584:Generated_Source\PSoC4/LCD.c **** *
 585:Generated_Source\PSoC4/LCD.c **** * Reentrant:
 586:Generated_Source\PSoC4/LCD.c **** *  No
 587:Generated_Source\PSoC4/LCD.c **** *
 588:Generated_Source\PSoC4/LCD.c **** *******************************************************************************/
 589:Generated_Source\PSoC4/LCD.c **** void LCD_HandleOneByteCommand(uint8 cmdId, uint8 cmdByte)
 590:Generated_Source\PSoC4/LCD.c ****                                                         
 591:Generated_Source\PSoC4/LCD.c **** {
 592:Generated_Source\PSoC4/LCD.c ****     uint8 oneByteArray[LCD_ONE_BYTE_LEN];
 593:Generated_Source\PSoC4/LCD.c ****     
 594:Generated_Source\PSoC4/LCD.c ****     oneByteArray[0u] = cmdByte;
 595:Generated_Source\PSoC4/LCD.c ****     
 596:Generated_Source\PSoC4/LCD.c ****     LCD_HandleCustomCommand(cmdId, LCD_ONE_BYTE_LEN, oneByteArray);
 597:Generated_Source\PSoC4/LCD.c **** }
 598:Generated_Source\PSoC4/LCD.c **** 
 599:Generated_Source\PSoC4/LCD.c **** 
 600:Generated_Source\PSoC4/LCD.c **** /*******************************************************************************
 601:Generated_Source\PSoC4/LCD.c **** * Function Name: LCD_PrintString
 602:Generated_Source\PSoC4/LCD.c **** ********************************************************************************
 603:Generated_Source\PSoC4/LCD.c **** *
 604:Generated_Source\PSoC4/LCD.c **** * Summary:
 605:Generated_Source\PSoC4/LCD.c **** *  Write a null-terminated string of characters to the screen beginning at the
 606:Generated_Source\PSoC4/LCD.c **** *  current cursor location.
 607:Generated_Source\PSoC4/LCD.c **** *
 608:Generated_Source\PSoC4/LCD.c **** * Parameters:
 609:Generated_Source\PSoC4/LCD.c **** *  string:  Null-terminated array of ASCII characters to be displayed on the LCD
 610:Generated_Source\PSoC4/LCD.c **** *           module's screen.
 611:Generated_Source\PSoC4/LCD.c **** *
 612:Generated_Source\PSoC4/LCD.c **** * Return:
 613:Generated_Source\PSoC4/LCD.c **** *  None
 614:Generated_Source\PSoC4/LCD.c **** *
 615:Generated_Source\PSoC4/LCD.c **** * Reentrant:
 616:Generated_Source\PSoC4/LCD.c **** *  No
 617:Generated_Source\PSoC4/LCD.c **** *
 618:Generated_Source\PSoC4/LCD.c **** *******************************************************************************/
 619:Generated_Source\PSoC4/LCD.c **** void LCD_PrintString(char8 const string[]) 
 620:Generated_Source\PSoC4/LCD.c **** {
 621:Generated_Source\PSoC4/LCD.c ****     uint8 chIdx = 1u;
 622:Generated_Source\PSoC4/LCD.c ****     char8 current = *string;
 623:Generated_Source\PSoC4/LCD.c **** 
 624:Generated_Source\PSoC4/LCD.c ****     /* Send required control byte value to address data register */
 625:Generated_Source\PSoC4/LCD.c ****     LCD_WrCntrlPatt(LCD_WRITE_DATA_IDX);
 626:Generated_Source\PSoC4/LCD.c **** 
 627:Generated_Source\PSoC4/LCD.c ****     /* Until null is reached, put next character into buffer */
 628:Generated_Source\PSoC4/LCD.c ****     while((char8) '\0' != current)
 629:Generated_Source\PSoC4/LCD.c ****     {
 630:Generated_Source\PSoC4/LCD.c ****         /* Add current byte to buffer */
 631:Generated_Source\PSoC4/LCD.c ****         #if (LCD_COMMAND_FORMAT == LCD_NXP_PCF2119X)
 632:Generated_Source\PSoC4/LCD.c ****             /* In case of NXP PCF2119x, LCD modules use character set "S"
 633:Generated_Source\PSoC4/LCD.c ****             * (see LCD's module datasheet) that has English letters located in
 634:Generated_Source\PSoC4/LCD.c ****             * "extended" area (ASCII code > 128) so it is required to handle
 635:Generated_Source\PSoC4/LCD.c ****             * that. But the first eight generated character are exceptions.
 636:Generated_Source\PSoC4/LCD.c ****             */
ARM GAS  C:\Users\Kyle\AppData\Local\Temp\cc3JtO6L.s 			page 15


 637:Generated_Source\PSoC4/LCD.c ****             if(((char8)(LCD_CUSTOM_CHAR_NUM)) > current)
 638:Generated_Source\PSoC4/LCD.c ****             {
 639:Generated_Source\PSoC4/LCD.c ****                 LCD_WrDataToBuff((uint8) current);
 640:Generated_Source\PSoC4/LCD.c ****             }
 641:Generated_Source\PSoC4/LCD.c ****             else
 642:Generated_Source\PSoC4/LCD.c ****             {
 643:Generated_Source\PSoC4/LCD.c ****                 LCD_WrDataToBuff(((uint8) current) ^ LCD_CHARACTER_SET_S_MASK);
 644:Generated_Source\PSoC4/LCD.c ****             }
 645:Generated_Source\PSoC4/LCD.c ****         #else
 646:Generated_Source\PSoC4/LCD.c ****             LCD_WrDataToBuff((uint8) current);
 647:Generated_Source\PSoC4/LCD.c ****         #endif /* ((LCD_COMMAND_FORMAT == LCD_NXP_PCF2119X) && \
 648:Generated_Source\PSoC4/LCD.c ****                * (LCD_CUSTOM_CHAR_SET != LCD_NONE))
 649:Generated_Source\PSoC4/LCD.c ****                */
 650:Generated_Source\PSoC4/LCD.c **** 
 651:Generated_Source\PSoC4/LCD.c ****         /* Get next byte from string */
 652:Generated_Source\PSoC4/LCD.c ****         current = string[chIdx];
 653:Generated_Source\PSoC4/LCD.c ****         chIdx++;
 654:Generated_Source\PSoC4/LCD.c ****     }
 655:Generated_Source\PSoC4/LCD.c **** 
 656:Generated_Source\PSoC4/LCD.c ****     /* Send data to LCD and wait when transaction completes */
 657:Generated_Source\PSoC4/LCD.c ****     LCD_SendSequence();
 658:Generated_Source\PSoC4/LCD.c **** }
 659:Generated_Source\PSoC4/LCD.c **** 
 660:Generated_Source\PSoC4/LCD.c **** 
 661:Generated_Source\PSoC4/LCD.c **** /*******************************************************************************
 662:Generated_Source\PSoC4/LCD.c **** *  Function Name: LCD_PutChar
 663:Generated_Source\PSoC4/LCD.c **** ********************************************************************************
 664:Generated_Source\PSoC4/LCD.c **** *
 665:Generated_Source\PSoC4/LCD.c **** * Summary:
 666:Generated_Source\PSoC4/LCD.c **** *  Writes an individual character to the screen at the current cursor location.
 667:Generated_Source\PSoC4/LCD.c **** *  Used to display custom characters through their named values.
 668:Generated_Source\PSoC4/LCD.c **** *  (I2C_LCD_CUSTOM_0 through I2C_LCD_CUSTOM_7).
 669:Generated_Source\PSoC4/LCD.c **** *
 670:Generated_Source\PSoC4/LCD.c **** * Parameters:
 671:Generated_Source\PSoC4/LCD.c **** *  character:  An ASCII character to be displayed on the LCD module's screen.
 672:Generated_Source\PSoC4/LCD.c **** *
 673:Generated_Source\PSoC4/LCD.c **** * Return:
 674:Generated_Source\PSoC4/LCD.c **** *  None
 675:Generated_Source\PSoC4/LCD.c **** *
 676:Generated_Source\PSoC4/LCD.c **** * Reentrant:
 677:Generated_Source\PSoC4/LCD.c **** *  No
 678:Generated_Source\PSoC4/LCD.c **** *
 679:Generated_Source\PSoC4/LCD.c **** *******************************************************************************/
 680:Generated_Source\PSoC4/LCD.c **** void LCD_PutChar(char8 character) 
 681:Generated_Source\PSoC4/LCD.c **** {
 682:Generated_Source\PSoC4/LCD.c ****     /* Send one byte of data with I2C_LCD_WriteData() */
 683:Generated_Source\PSoC4/LCD.c ****     #if (LCD_COMMAND_FORMAT == LCD_NXP_PCF2119X)
 684:Generated_Source\PSoC4/LCD.c ****         /* In case of NXP PCF2119x, the LCD modules use character set "S"
 685:Generated_Source\PSoC4/LCD.c ****         * (see LCD's module datasheet) that has English letters located in
 686:Generated_Source\PSoC4/LCD.c ****         * "extended" area (ASCII code > 128) so it is required to handle
 687:Generated_Source\PSoC4/LCD.c ****         * that. But the first eight generated character are exceptions.
 688:Generated_Source\PSoC4/LCD.c ****         */
 689:Generated_Source\PSoC4/LCD.c ****         if(((char8) (LCD_CUSTOM_CHAR_NUM)) >  character)
 690:Generated_Source\PSoC4/LCD.c ****         {
 691:Generated_Source\PSoC4/LCD.c ****             LCD_WriteData((uint8) character);
 692:Generated_Source\PSoC4/LCD.c ****         }
 693:Generated_Source\PSoC4/LCD.c ****         else
ARM GAS  C:\Users\Kyle\AppData\Local\Temp\cc3JtO6L.s 			page 16


 694:Generated_Source\PSoC4/LCD.c ****         {
 695:Generated_Source\PSoC4/LCD.c ****             LCD_WriteData(((uint8) character) ^ LCD_CHARACTER_SET_S_MASK);
 696:Generated_Source\PSoC4/LCD.c ****         }
 697:Generated_Source\PSoC4/LCD.c ****     #else
 698:Generated_Source\PSoC4/LCD.c ****         LCD_WriteData((uint8) character);
 699:Generated_Source\PSoC4/LCD.c ****     #endif /* (LCD_COMMAND_FORMAT == LCD_NXP_PCF2119X) */
 700:Generated_Source\PSoC4/LCD.c **** }
 701:Generated_Source\PSoC4/LCD.c **** 
 702:Generated_Source\PSoC4/LCD.c **** 
 703:Generated_Source\PSoC4/LCD.c **** /*******************************************************************************
 704:Generated_Source\PSoC4/LCD.c **** *  Function Name: LCD_PrintInt8
 705:Generated_Source\PSoC4/LCD.c **** ********************************************************************************
 706:Generated_Source\PSoC4/LCD.c **** *
 707:Generated_Source\PSoC4/LCD.c **** * Summary:
 708:Generated_Source\PSoC4/LCD.c **** *  Print a byte as two ASCII characters.
 709:Generated_Source\PSoC4/LCD.c **** *
 710:Generated_Source\PSoC4/LCD.c **** * Parameters:
 711:Generated_Source\PSoC4/LCD.c **** *  value: The byte to be printed out as ASCII characters.
 712:Generated_Source\PSoC4/LCD.c **** *
 713:Generated_Source\PSoC4/LCD.c **** * Return:
 714:Generated_Source\PSoC4/LCD.c **** *  None
 715:Generated_Source\PSoC4/LCD.c **** *
 716:Generated_Source\PSoC4/LCD.c **** * Reentrant:
 717:Generated_Source\PSoC4/LCD.c **** *  No
 718:Generated_Source\PSoC4/LCD.c **** *
 719:Generated_Source\PSoC4/LCD.c **** *******************************************************************************/
 720:Generated_Source\PSoC4/LCD.c **** void LCD_PrintInt8(uint8 value) 
 721:Generated_Source\PSoC4/LCD.c **** {
 722:Generated_Source\PSoC4/LCD.c ****     static char8 const CYCODE LCD_hex[16u] = "0123456789ABCDEF";
 723:Generated_Source\PSoC4/LCD.c **** 
 724:Generated_Source\PSoC4/LCD.c ****     /* Send required control byte value to address data register */
 725:Generated_Source\PSoC4/LCD.c ****     LCD_WrCntrlPatt(LCD_WRITE_DATA_IDX);
 726:Generated_Source\PSoC4/LCD.c **** 
 727:Generated_Source\PSoC4/LCD.c ****     /* Add current byte to buffer */
 728:Generated_Source\PSoC4/LCD.c ****     #if (LCD_COMMAND_FORMAT == LCD_NXP_PCF2119X)
 729:Generated_Source\PSoC4/LCD.c ****         /* In case of NXP PCF2119x, LCD modules use character set "S"
 730:Generated_Source\PSoC4/LCD.c ****         * (see LCD's module datasheet) that has English letters located in
 731:Generated_Source\PSoC4/LCD.c ****         * "extended" area (ASCII code > 128) so it is required to handle
 732:Generated_Source\PSoC4/LCD.c ****         * that.
 733:Generated_Source\PSoC4/LCD.c ****         */
 734:Generated_Source\PSoC4/LCD.c ****         LCD_WrDataToBuff(((uint8) LCD_hex[value >> LCD_BYTE_UPPER_NIBBLE_SHIFT])
 735:Generated_Source\PSoC4/LCD.c ****                                                ^ LCD_CHARACTER_SET_S_MASK );
 736:Generated_Source\PSoC4/LCD.c ****         LCD_WrDataToBuff(((uint8) LCD_hex[value & LCD_BYTE_LOWER_NIBBLE_MASK]) ^
 737:Generated_Source\PSoC4/LCD.c ****                                                LCD_CHARACTER_SET_S_MASK);
 738:Generated_Source\PSoC4/LCD.c ****     #else
 739:Generated_Source\PSoC4/LCD.c ****         LCD_WrDataToBuff((uint8) LCD_hex[value >> LCD_BYTE_UPPER_NIBBLE_SHIFT]);
 740:Generated_Source\PSoC4/LCD.c ****         LCD_WrDataToBuff((uint8) LCD_hex[value & LCD_BYTE_LOWER_NIBBLE_MASK]);
 741:Generated_Source\PSoC4/LCD.c ****     #endif /* (LCD_COMMAND_FORMAT == LCD_NXP_PCF2119X) */
 742:Generated_Source\PSoC4/LCD.c **** 
 743:Generated_Source\PSoC4/LCD.c ****     /* Send data to LCD and wait when transaction complete */
 744:Generated_Source\PSoC4/LCD.c ****     LCD_SendSequence();
 745:Generated_Source\PSoC4/LCD.c **** }
 746:Generated_Source\PSoC4/LCD.c **** 
 747:Generated_Source\PSoC4/LCD.c **** 
 748:Generated_Source\PSoC4/LCD.c **** /*******************************************************************************
 749:Generated_Source\PSoC4/LCD.c **** *  Function Name: LCD_PrintInt16
 750:Generated_Source\PSoC4/LCD.c **** ********************************************************************************
ARM GAS  C:\Users\Kyle\AppData\Local\Temp\cc3JtO6L.s 			page 17


 751:Generated_Source\PSoC4/LCD.c **** *
 752:Generated_Source\PSoC4/LCD.c **** * Summary:
 753:Generated_Source\PSoC4/LCD.c **** *  Print a uint16 as four ASCII characters.
 754:Generated_Source\PSoC4/LCD.c **** *
 755:Generated_Source\PSoC4/LCD.c **** * Parameters:
 756:Generated_Source\PSoC4/LCD.c **** *  value:   The uint16 to be printed out as ASCII characters.
 757:Generated_Source\PSoC4/LCD.c **** *
 758:Generated_Source\PSoC4/LCD.c **** * Return:
 759:Generated_Source\PSoC4/LCD.c **** *  None
 760:Generated_Source\PSoC4/LCD.c **** *
 761:Generated_Source\PSoC4/LCD.c **** * Reentrant:
 762:Generated_Source\PSoC4/LCD.c **** *  No
 763:Generated_Source\PSoC4/LCD.c **** *
 764:Generated_Source\PSoC4/LCD.c **** *******************************************************************************/
 765:Generated_Source\PSoC4/LCD.c **** void LCD_PrintInt16(uint16 value) 
 766:Generated_Source\PSoC4/LCD.c **** {
 767:Generated_Source\PSoC4/LCD.c ****     LCD_PrintInt8((uint8)(value >> LCD_U16_UPPER_BYTE_SHIFT));
 768:Generated_Source\PSoC4/LCD.c ****     LCD_PrintInt8((uint8)(value & LCD_U16_LOWER_BYTE_MASK));
 769:Generated_Source\PSoC4/LCD.c **** }
 770:Generated_Source\PSoC4/LCD.c **** 
 771:Generated_Source\PSoC4/LCD.c **** 
 772:Generated_Source\PSoC4/LCD.c **** /*******************************************************************************
 773:Generated_Source\PSoC4/LCD.c **** *  Function Name: LCD_PrintNumber
 774:Generated_Source\PSoC4/LCD.c **** ********************************************************************************
 775:Generated_Source\PSoC4/LCD.c **** *
 776:Generated_Source\PSoC4/LCD.c **** * Summary:
 777:Generated_Source\PSoC4/LCD.c **** *  Print a uint16 value as a left-justified decimal value.
 778:Generated_Source\PSoC4/LCD.c **** *
 779:Generated_Source\PSoC4/LCD.c **** * Parameters:
 780:Generated_Source\PSoC4/LCD.c **** *  value:  The byte to be printed out as ASCII characters.
 781:Generated_Source\PSoC4/LCD.c **** *
 782:Generated_Source\PSoC4/LCD.c **** * Return:
 783:Generated_Source\PSoC4/LCD.c **** *  None
 784:Generated_Source\PSoC4/LCD.c **** *
 785:Generated_Source\PSoC4/LCD.c **** * Reentrant:
 786:Generated_Source\PSoC4/LCD.c **** *  No
 787:Generated_Source\PSoC4/LCD.c **** *
 788:Generated_Source\PSoC4/LCD.c **** *******************************************************************************/
 789:Generated_Source\PSoC4/LCD.c **** void LCD_PrintNumber(uint16 value) 
 790:Generated_Source\PSoC4/LCD.c **** {
 791:Generated_Source\PSoC4/LCD.c ****     char8 number[LCD_NUMBER_OF_REMAINDERS];
 792:Generated_Source\PSoC4/LCD.c ****     char8 temp[LCD_NUMBER_OF_REMAINDERS];
 793:Generated_Source\PSoC4/LCD.c **** 
 794:Generated_Source\PSoC4/LCD.c ****     uint8 digIndex = 0u;
 795:Generated_Source\PSoC4/LCD.c ****     uint8 numDigits;
 796:Generated_Source\PSoC4/LCD.c **** 
 797:Generated_Source\PSoC4/LCD.c ****     /* Load these in reverse order */
 798:Generated_Source\PSoC4/LCD.c ****     while(value >= LCD_TEN)
 799:Generated_Source\PSoC4/LCD.c ****     {
 800:Generated_Source\PSoC4/LCD.c ****         temp[digIndex] = (value % LCD_TEN) + '0';
 801:Generated_Source\PSoC4/LCD.c ****         value /= LCD_TEN;
 802:Generated_Source\PSoC4/LCD.c ****         digIndex++;
 803:Generated_Source\PSoC4/LCD.c ****     }
 804:Generated_Source\PSoC4/LCD.c **** 
 805:Generated_Source\PSoC4/LCD.c ****     temp[digIndex] = (value % LCD_TEN) + '0';
 806:Generated_Source\PSoC4/LCD.c ****     numDigits = digIndex;
 807:Generated_Source\PSoC4/LCD.c **** 
ARM GAS  C:\Users\Kyle\AppData\Local\Temp\cc3JtO6L.s 			page 18


 808:Generated_Source\PSoC4/LCD.c ****     /* While index is greater than or equal to zero copy number
 809:Generated_Source\PSoC4/LCD.c ****     * from temporary array to number[].
 810:Generated_Source\PSoC4/LCD.c ****     */
 811:Generated_Source\PSoC4/LCD.c ****     while (digIndex != 0u)
 812:Generated_Source\PSoC4/LCD.c ****     {
 813:Generated_Source\PSoC4/LCD.c ****         number[numDigits - digIndex] = temp[digIndex];
 814:Generated_Source\PSoC4/LCD.c ****         digIndex--;
 815:Generated_Source\PSoC4/LCD.c ****     }
 816:Generated_Source\PSoC4/LCD.c **** 
 817:Generated_Source\PSoC4/LCD.c ****     /* Copy last digit */
 818:Generated_Source\PSoC4/LCD.c ****     number[numDigits] = temp[0u];
 819:Generated_Source\PSoC4/LCD.c **** 
 820:Generated_Source\PSoC4/LCD.c ****     /* Null Termination */
 821:Generated_Source\PSoC4/LCD.c ****     number[numDigits + 1u] = (char8) '\0';
 822:Generated_Source\PSoC4/LCD.c **** 
 823:Generated_Source\PSoC4/LCD.c ****     /* Print out number */
 824:Generated_Source\PSoC4/LCD.c ****     LCD_PrintString(&number[0u]);
 825:Generated_Source\PSoC4/LCD.c **** }
 826:Generated_Source\PSoC4/LCD.c **** 
 827:Generated_Source\PSoC4/LCD.c **** 
 828:Generated_Source\PSoC4/LCD.c **** /*******************************************************************************
 829:Generated_Source\PSoC4/LCD.c **** * Function Name: LCD_SetAddr
 830:Generated_Source\PSoC4/LCD.c **** ********************************************************************************
 831:Generated_Source\PSoC4/LCD.c **** *
 832:Generated_Source\PSoC4/LCD.c **** * Summary:
 833:Generated_Source\PSoC4/LCD.c **** *  This function allows the user to change the default I2C address of the LCD.
 834:Generated_Source\PSoC4/LCD.c **** *  This function is not used for designs with a single LCD. Systems that have 2
 835:Generated_Source\PSoC4/LCD.c **** *  or more LCDs on a single I2C bus, use this function to select which LCD to
 836:Generated_Source\PSoC4/LCD.c **** *  communicate. A uint8 variable LCD_address, will be will be set
 837:Generated_Source\PSoC4/LCD.c **** *  to the "address" parameter and be used for all further communication until
 838:Generated_Source\PSoC4/LCD.c **** *  it is changed to a new address.
 839:Generated_Source\PSoC4/LCD.c **** *
 840:Generated_Source\PSoC4/LCD.c **** * Parameters:
 841:Generated_Source\PSoC4/LCD.c **** *  None
 842:Generated_Source\PSoC4/LCD.c **** *
 843:Generated_Source\PSoC4/LCD.c **** * Return:
 844:Generated_Source\PSoC4/LCD.c **** *  None
 845:Generated_Source\PSoC4/LCD.c **** *
 846:Generated_Source\PSoC4/LCD.c **** * Reentrant:
 847:Generated_Source\PSoC4/LCD.c **** *  No
 848:Generated_Source\PSoC4/LCD.c **** *
 849:Generated_Source\PSoC4/LCD.c **** *******************************************************************************/
 850:Generated_Source\PSoC4/LCD.c **** void LCD_SetAddr(uint8 address) 
 851:Generated_Source\PSoC4/LCD.c **** {
 852:Generated_Source\PSoC4/LCD.c ****     #if(LCD_IS_SCB_MASTER_USED)
 853:Generated_Source\PSoC4/LCD.c ****         LCD_address = ((uint32) address >> LCD_ADDRESS_SHIFT);
 854:Generated_Source\PSoC4/LCD.c ****     #else
 855:Generated_Source\PSoC4/LCD.c ****         LCD_address = ((uint8) address >> LCD_ADDRESS_SHIFT);
 856:Generated_Source\PSoC4/LCD.c ****     #endif /* (LCD_IS_SCB_MASTER_USED) */
 857:Generated_Source\PSoC4/LCD.c **** }
 858:Generated_Source\PSoC4/LCD.c **** 
 859:Generated_Source\PSoC4/LCD.c **** 
 860:Generated_Source\PSoC4/LCD.c **** #if (LCD_CUSTOM_CHAR_SET != LCD_NONE)
 861:Generated_Source\PSoC4/LCD.c **** 
 862:Generated_Source\PSoC4/LCD.c ****     /*******************************************************************************
 863:Generated_Source\PSoC4/LCD.c ****     * Function Name: LCD_LoadCustomFonts
 864:Generated_Source\PSoC4/LCD.c ****     ********************************************************************************
ARM GAS  C:\Users\Kyle\AppData\Local\Temp\cc3JtO6L.s 			page 19


 865:Generated_Source\PSoC4/LCD.c ****     *
 866:Generated_Source\PSoC4/LCD.c ****     * Summary:
 867:Generated_Source\PSoC4/LCD.c ****     *  Loads 8 custom font characters into the LCD Module for use.  Cannot use
 868:Generated_Source\PSoC4/LCD.c ****     *  characters from two different font sets at once, but font sets can be
 869:Generated_Source\PSoC4/LCD.c ****     *  switched out during runtime.
 870:Generated_Source\PSoC4/LCD.c ****     *
 871:Generated_Source\PSoC4/LCD.c ****     * Parameters:
 872:Generated_Source\PSoC4/LCD.c ****     *  customData:  The pointer to a constant array of 64 bytes representing 
 873:Generated_Source\PSoC4/LCD.c ****     *               8 custom font characters.
 874:Generated_Source\PSoC4/LCD.c ****     * Return:
 875:Generated_Source\PSoC4/LCD.c ****     *  None
 876:Generated_Source\PSoC4/LCD.c ****     *
 877:Generated_Source\PSoC4/LCD.c ****     * Reentrant:
 878:Generated_Source\PSoC4/LCD.c ****     *  No
 879:Generated_Source\PSoC4/LCD.c ****     *
 880:Generated_Source\PSoC4/LCD.c ****     * Theory:
 881:Generated_Source\PSoC4/LCD.c ****     *  Prior to using this function user need to import the pointer to custom
 882:Generated_Source\PSoC4/LCD.c ****     *  font array to your project by writing the following in the source code file
 883:Generated_Source\PSoC4/LCD.c ****     *  where custom font will be used:
 884:Generated_Source\PSoC4/LCD.c ****     *       extern uint8 const CYCODE LCD_Char_customFonts[];
 885:Generated_Source\PSoC4/LCD.c ****     *  This function is not automatically called by the Start() routine and must be
 886:Generated_Source\PSoC4/LCD.c ****     *  called manually by the user.
 887:Generated_Source\PSoC4/LCD.c ****     *
 888:Generated_Source\PSoC4/LCD.c ****     *******************************************************************************/
 889:Generated_Source\PSoC4/LCD.c ****     void LCD_LoadCustomFonts(uint8 const customData[])
 890:Generated_Source\PSoC4/LCD.c ****                                                             
 891:Generated_Source\PSoC4/LCD.c ****     {
 892:Generated_Source\PSoC4/LCD.c ****         uint8 i;
 893:Generated_Source\PSoC4/LCD.c **** 
 894:Generated_Source\PSoC4/LCD.c ****         #if (LCD_COMMAND_FORMAT != LCD_NXP_PCF2119X)
 895:Generated_Source\PSoC4/LCD.c ****             uint8 addrOffset = 0u;
 896:Generated_Source\PSoC4/LCD.c ****             uint8 count = 0u;
 897:Generated_Source\PSoC4/LCD.c ****         #endif /* (LCD_COMMAND_FORMAT != LCD_NXP_PCF2119X) */
 898:Generated_Source\PSoC4/LCD.c **** 
 899:Generated_Source\PSoC4/LCD.c ****         #if (LCD_COMMAND_FORMAT == LCD_NXP_PCF2119X)
 900:Generated_Source\PSoC4/LCD.c ****             /* Set starting address in LCD Module as it is location of CGRAM */
 901:Generated_Source\PSoC4/LCD.c ****             LCD_WriteControl(LCD_CGRAM_0);
 902:Generated_Source\PSoC4/LCD.c **** 
 903:Generated_Source\PSoC4/LCD.c ****             /* Set Control pattern for data writing */
 904:Generated_Source\PSoC4/LCD.c ****             LCD_WrCntrlPatt(LCD_WRITE_DATA_IDX);
 905:Generated_Source\PSoC4/LCD.c **** 
 906:Generated_Source\PSoC4/LCD.c ****             /* Load in 64 bytes of CustomChar Data */
 907:Generated_Source\PSoC4/LCD.c ****             for(i = 0u; i < LCD_CUSTOM_CHAR_SET_LEN; i++)
 908:Generated_Source\PSoC4/LCD.c ****             {
 909:Generated_Source\PSoC4/LCD.c ****                 /* Variable 'i' defines character ID (character address) */
 910:Generated_Source\PSoC4/LCD.c ****                 LCD_WrDataToBuff(customData[i]);
 911:Generated_Source\PSoC4/LCD.c ****             }
 912:Generated_Source\PSoC4/LCD.c **** 
 913:Generated_Source\PSoC4/LCD.c ****             /* Send data to LCD and wait when transaction completes */
 914:Generated_Source\PSoC4/LCD.c ****             LCD_SendSequence();
 915:Generated_Source\PSoC4/LCD.c ****             
 916:Generated_Source\PSoC4/LCD.c ****             /* Set the LCD modules address register back to the start of the data RAM */
 917:Generated_Source\PSoC4/LCD.c ****             LCD_Position(0u ,0u);
 918:Generated_Source\PSoC4/LCD.c ****         #else
 919:Generated_Source\PSoC4/LCD.c ****             while(addrOffset < LCD_CUSTOM_CHAR_SET_LEN)
 920:Generated_Source\PSoC4/LCD.c ****             {
 921:Generated_Source\PSoC4/LCD.c ****                 /* Set starting address in LCD Module as it is location of CGRAM. */
ARM GAS  C:\Users\Kyle\AppData\Local\Temp\cc3JtO6L.s 			page 20


 922:Generated_Source\PSoC4/LCD.c ****                 LCD_WrCntrlPatt(LCD_CGRAM_0_IDX);
 923:Generated_Source\PSoC4/LCD.c ****                 
 924:Generated_Source\PSoC4/LCD.c ****                 /* Variable 'i' defines character ID (character address) */
 925:Generated_Source\PSoC4/LCD.c ****                 LCD_WrDataToBuff(count);
 926:Generated_Source\PSoC4/LCD.c ****                 
 927:Generated_Source\PSoC4/LCD.c ****                 /* Increment count (actually means to increment custom character address) */
 928:Generated_Source\PSoC4/LCD.c ****                 count++;
 929:Generated_Source\PSoC4/LCD.c ****                 
 930:Generated_Source\PSoC4/LCD.c ****                 for(i = 0u; i < LCD_CHARACTER_HEIGHT; i++)
 931:Generated_Source\PSoC4/LCD.c ****                 {
 932:Generated_Source\PSoC4/LCD.c ****                     LCD_WrDataToBuff(customData[addrOffset + i]);
 933:Generated_Source\PSoC4/LCD.c ****                 }
 934:Generated_Source\PSoC4/LCD.c **** 
 935:Generated_Source\PSoC4/LCD.c ****                 /* Send data to LCD and wait when transaction complete */
 936:Generated_Source\PSoC4/LCD.c ****                 LCD_SendSequence();
 937:Generated_Source\PSoC4/LCD.c ****                 
 938:Generated_Source\PSoC4/LCD.c ****                 /* Calculate next offset value */
 939:Generated_Source\PSoC4/LCD.c ****                 addrOffset += LCD_CHARACTER_HEIGHT;
 940:Generated_Source\PSoC4/LCD.c ****             }
 941:Generated_Source\PSoC4/LCD.c ****         #endif /* (LCD_COMMAND_FORMAT != LCD_NXP_PCF2119X) */
 942:Generated_Source\PSoC4/LCD.c ****     }
 943:Generated_Source\PSoC4/LCD.c **** 
 944:Generated_Source\PSoC4/LCD.c **** #endif /* LCD_CUSTOM_CHAR_SET == LCD_NONE */
 945:Generated_Source\PSoC4/LCD.c **** 
 946:Generated_Source\PSoC4/LCD.c **** 
 947:Generated_Source\PSoC4/LCD.c **** #if((LCD_CUSTOM_CHAR_SET == LCD_VERTICAL_BG) || \
 948:Generated_Source\PSoC4/LCD.c ****                 (LCD_CUSTOM_CHAR_SET == LCD_HORIZONTAL_BG))
 949:Generated_Source\PSoC4/LCD.c **** 
 950:Generated_Source\PSoC4/LCD.c ****     /*******************************************************************************
 951:Generated_Source\PSoC4/LCD.c ****     * Function Name: LCD_DrawHorizontalBG
 952:Generated_Source\PSoC4/LCD.c ****     ********************************************************************************
 953:Generated_Source\PSoC4/LCD.c ****     *
 954:Generated_Source\PSoC4/LCD.c ****     * Summary:
 955:Generated_Source\PSoC4/LCD.c ****     *  Draws the horizontal bargraph.
 956:Generated_Source\PSoC4/LCD.c ****     *
 957:Generated_Source\PSoC4/LCD.c ****     * Parameters:
 958:Generated_Source\PSoC4/LCD.c ****     *  row:            The row in which the bar graph starts.
 959:Generated_Source\PSoC4/LCD.c ****     *  column:         The column in which the bar graph starts.
 960:Generated_Source\PSoC4/LCD.c ****     *  maxCharacters:  The max length of the graph in whole characters.
 961:Generated_Source\PSoC4/LCD.c ****     *  value:          The current length or height of the graph in pixels.
 962:Generated_Source\PSoC4/LCD.c ****     *
 963:Generated_Source\PSoC4/LCD.c ****     * Return:
 964:Generated_Source\PSoC4/LCD.c ****     *  None
 965:Generated_Source\PSoC4/LCD.c ****     *
 966:Generated_Source\PSoC4/LCD.c ****     * Reentrant:
 967:Generated_Source\PSoC4/LCD.c ****     *  No
 968:Generated_Source\PSoC4/LCD.c ****     *
 969:Generated_Source\PSoC4/LCD.c ****     *******************************************************************************/
 970:Generated_Source\PSoC4/LCD.c ****     void LCD_DrawHorizontalBG(uint8 row, uint8 column, uint8 maxCharacters, uint8 value) \
 971:Generated_Source\PSoC4/LCD.c ****                                                             
 972:Generated_Source\PSoC4/LCD.c ****     {
 973:Generated_Source\PSoC4/LCD.c ****         /* 8-bit Counter */
 974:Generated_Source\PSoC4/LCD.c ****         uint8 count8;
 975:Generated_Source\PSoC4/LCD.c ****         uint8 fullChars;
 976:Generated_Source\PSoC4/LCD.c ****         uint8 remainingPixels;
 977:Generated_Source\PSoC4/LCD.c **** 
 978:Generated_Source\PSoC4/LCD.c ****         /* Number of full characters to draw */
ARM GAS  C:\Users\Kyle\AppData\Local\Temp\cc3JtO6L.s 			page 21


 979:Generated_Source\PSoC4/LCD.c ****         fullChars = value / LCD_CHARACTER_WIDTH;
 980:Generated_Source\PSoC4/LCD.c **** 
 981:Generated_Source\PSoC4/LCD.c ****         /* Number of remaining pixels to draw */
 982:Generated_Source\PSoC4/LCD.c ****         remainingPixels = value % LCD_CHARACTER_WIDTH;
 983:Generated_Source\PSoC4/LCD.c **** 
 984:Generated_Source\PSoC4/LCD.c ****         /* Ensure that maximum character limit is followed. */
 985:Generated_Source\PSoC4/LCD.c ****         if(fullChars >= maxCharacters)
 986:Generated_Source\PSoC4/LCD.c ****         {
 987:Generated_Source\PSoC4/LCD.c ****             fullChars = maxCharacters;
 988:Generated_Source\PSoC4/LCD.c ****         }
 989:Generated_Source\PSoC4/LCD.c **** 
 990:Generated_Source\PSoC4/LCD.c ****         /* Put Cursor at start position */
 991:Generated_Source\PSoC4/LCD.c ****         LCD_Position(row, column);
 992:Generated_Source\PSoC4/LCD.c **** 
 993:Generated_Source\PSoC4/LCD.c ****         /* Set Control pattern for data writing */
 994:Generated_Source\PSoC4/LCD.c ****         LCD_WrCntrlPatt(LCD_WRITE_DATA_IDX);
 995:Generated_Source\PSoC4/LCD.c **** 
 996:Generated_Source\PSoC4/LCD.c ****         /* Write full characters */
 997:Generated_Source\PSoC4/LCD.c ****         for(count8 = 0u; count8 < fullChars; count8++)
 998:Generated_Source\PSoC4/LCD.c ****         {
 999:Generated_Source\PSoC4/LCD.c ****             LCD_WrDataToBuff(LCD_CUSTOM_5);
1000:Generated_Source\PSoC4/LCD.c ****         }
1001:Generated_Source\PSoC4/LCD.c **** 
1002:Generated_Source\PSoC4/LCD.c ****         if(fullChars < maxCharacters)
1003:Generated_Source\PSoC4/LCD.c ****         {
1004:Generated_Source\PSoC4/LCD.c ****             /* Write remaining pixels */
1005:Generated_Source\PSoC4/LCD.c ****             LCD_WrDataToBuff(remainingPixels);
1006:Generated_Source\PSoC4/LCD.c **** 
1007:Generated_Source\PSoC4/LCD.c ****             if(fullChars < (maxCharacters - 1u))
1008:Generated_Source\PSoC4/LCD.c ****             {
1009:Generated_Source\PSoC4/LCD.c ****                 /* Fill with whitespace to end of bar graph */
1010:Generated_Source\PSoC4/LCD.c ****                 for(count8 = 0u; count8 < (maxCharacters - fullChars - 1u); count8++)
1011:Generated_Source\PSoC4/LCD.c ****                 {
1012:Generated_Source\PSoC4/LCD.c ****                     LCD_WrDataToBuff(LCD_CUSTOM_0);
1013:Generated_Source\PSoC4/LCD.c ****                 }
1014:Generated_Source\PSoC4/LCD.c ****             }
1015:Generated_Source\PSoC4/LCD.c ****         }
1016:Generated_Source\PSoC4/LCD.c **** 
1017:Generated_Source\PSoC4/LCD.c ****         /* Send data to LCD and wait when transaction complete */
1018:Generated_Source\PSoC4/LCD.c ****         LCD_SendSequence();
1019:Generated_Source\PSoC4/LCD.c ****     }
1020:Generated_Source\PSoC4/LCD.c **** 
1021:Generated_Source\PSoC4/LCD.c **** 
1022:Generated_Source\PSoC4/LCD.c ****     /*******************************************************************************
1023:Generated_Source\PSoC4/LCD.c ****     *  Function Name: LCD_DrawVerticalBG
1024:Generated_Source\PSoC4/LCD.c ****     ********************************************************************************
1025:Generated_Source\PSoC4/LCD.c ****     *
1026:Generated_Source\PSoC4/LCD.c ****     * Summary:
1027:Generated_Source\PSoC4/LCD.c ****     *  Draws the vertical bargraph.
1028:Generated_Source\PSoC4/LCD.c ****     *
1029:Generated_Source\PSoC4/LCD.c ****     * Parameters:
1030:Generated_Source\PSoC4/LCD.c ****     *  row:            The row in which the bar graph starts.
1031:Generated_Source\PSoC4/LCD.c ****     *  column:         The column in which the bar graph starts.
1032:Generated_Source\PSoC4/LCD.c ****     *  maxCharacters:  The max height of the graph in whole characters.
1033:Generated_Source\PSoC4/LCD.c ****     *  value:          The current length or height of the graph in pixels.
1034:Generated_Source\PSoC4/LCD.c ****     *
1035:Generated_Source\PSoC4/LCD.c ****     * Return:
ARM GAS  C:\Users\Kyle\AppData\Local\Temp\cc3JtO6L.s 			page 22


1036:Generated_Source\PSoC4/LCD.c ****     *  None
1037:Generated_Source\PSoC4/LCD.c ****     *
1038:Generated_Source\PSoC4/LCD.c ****     * Reentrant:
1039:Generated_Source\PSoC4/LCD.c ****     *  No
1040:Generated_Source\PSoC4/LCD.c ****     *
1041:Generated_Source\PSoC4/LCD.c ****     *******************************************************************************/
1042:Generated_Source\PSoC4/LCD.c ****     void LCD_DrawVerticalBG(uint8 row, uint8 column, uint8 maxCharacters, uint8 value)
1043:Generated_Source\PSoC4/LCD.c ****                                                             
1044:Generated_Source\PSoC4/LCD.c ****     {
1045:Generated_Source\PSoC4/LCD.c ****         /* 8-bit Counter */
1046:Generated_Source\PSoC4/LCD.c ****         uint8 count8 = 0u;
1047:Generated_Source\PSoC4/LCD.c ****         /* Current Row Tracker */
1048:Generated_Source\PSoC4/LCD.c ****         int8 currentRow;
1049:Generated_Source\PSoC4/LCD.c ****         uint8 fullChars;
1050:Generated_Source\PSoC4/LCD.c ****         uint8 remainingPixels;
1051:Generated_Source\PSoC4/LCD.c **** 
1052:Generated_Source\PSoC4/LCD.c ****         /* Number of full characters to draw */
1053:Generated_Source\PSoC4/LCD.c ****         fullChars = value / LCD_CHARACTER_HEIGHT;
1054:Generated_Source\PSoC4/LCD.c **** 
1055:Generated_Source\PSoC4/LCD.c ****         /* Number of remaining pixels to draw */
1056:Generated_Source\PSoC4/LCD.c ****         remainingPixels = value % LCD_CHARACTER_HEIGHT;
1057:Generated_Source\PSoC4/LCD.c **** 
1058:Generated_Source\PSoC4/LCD.c ****         /* Put Cursor at start position */
1059:Generated_Source\PSoC4/LCD.c ****         LCD_Position(row, column);
1060:Generated_Source\PSoC4/LCD.c **** 
1061:Generated_Source\PSoC4/LCD.c ****         /* Make sure the bar graph fits inside the space allotted */
1062:Generated_Source\PSoC4/LCD.c ****         if(fullChars >= maxCharacters)
1063:Generated_Source\PSoC4/LCD.c ****         {
1064:Generated_Source\PSoC4/LCD.c ****             fullChars = maxCharacters;
1065:Generated_Source\PSoC4/LCD.c ****         }
1066:Generated_Source\PSoC4/LCD.c **** 
1067:Generated_Source\PSoC4/LCD.c ****         /*  Write full characters */
1068:Generated_Source\PSoC4/LCD.c ****         while(count8 < fullChars)
1069:Generated_Source\PSoC4/LCD.c ****         {
1070:Generated_Source\PSoC4/LCD.c ****             LCD_WriteData(LCD_CUSTOM_7);
1071:Generated_Source\PSoC4/LCD.c **** 
1072:Generated_Source\PSoC4/LCD.c ****             count8++;
1073:Generated_Source\PSoC4/LCD.c **** 
1074:Generated_Source\PSoC4/LCD.c ****             /* Each pass through, move one row higher */
1075:Generated_Source\PSoC4/LCD.c ****             if((((int8) row) - ((int8) count8)) >= 0)
1076:Generated_Source\PSoC4/LCD.c ****             {
1077:Generated_Source\PSoC4/LCD.c ****                 LCD_Position(row - count8, column);
1078:Generated_Source\PSoC4/LCD.c ****             }
1079:Generated_Source\PSoC4/LCD.c ****             else
1080:Generated_Source\PSoC4/LCD.c ****             {
1081:Generated_Source\PSoC4/LCD.c ****                 break;
1082:Generated_Source\PSoC4/LCD.c ****             }
1083:Generated_Source\PSoC4/LCD.c ****         }
1084:Generated_Source\PSoC4/LCD.c **** 
1085:Generated_Source\PSoC4/LCD.c ****         if(((((int8) row) - ((int8) count8)) >= 0) && (fullChars < maxCharacters))
1086:Generated_Source\PSoC4/LCD.c ****         {
1087:Generated_Source\PSoC4/LCD.c ****             /* Write remaining pixels */
1088:Generated_Source\PSoC4/LCD.c ****             if(remainingPixels == 0u)
1089:Generated_Source\PSoC4/LCD.c ****             {
1090:Generated_Source\PSoC4/LCD.c ****                 LCD_WriteData((uint8) ' ');
1091:Generated_Source\PSoC4/LCD.c ****             }
1092:Generated_Source\PSoC4/LCD.c ****             else
ARM GAS  C:\Users\Kyle\AppData\Local\Temp\cc3JtO6L.s 			page 23


1093:Generated_Source\PSoC4/LCD.c ****             {
1094:Generated_Source\PSoC4/LCD.c ****                 LCD_WriteData(remainingPixels - 1u);
1095:Generated_Source\PSoC4/LCD.c ****             }
1096:Generated_Source\PSoC4/LCD.c **** 
1097:Generated_Source\PSoC4/LCD.c ****             currentRow = ((int8) row) - ((int8) count8) - 1;
1098:Generated_Source\PSoC4/LCD.c **** 
1099:Generated_Source\PSoC4/LCD.c ****             if(currentRow >= 0)
1100:Generated_Source\PSoC4/LCD.c ****             {
1101:Generated_Source\PSoC4/LCD.c ****                 /* Move up one row and fill with white space till top of bar graph */
1102:Generated_Source\PSoC4/LCD.c ****                 for(count8 = 0u; count8 < (maxCharacters - fullChars - 1u); count8++)
1103:Generated_Source\PSoC4/LCD.c ****                 {
1104:Generated_Source\PSoC4/LCD.c ****                     LCD_Position((uint8)currentRow, column);
1105:Generated_Source\PSoC4/LCD.c ****                     LCD_WriteData((uint8) ' ');
1106:Generated_Source\PSoC4/LCD.c ****                     currentRow --;
1107:Generated_Source\PSoC4/LCD.c ****                 }
1108:Generated_Source\PSoC4/LCD.c ****             }
1109:Generated_Source\PSoC4/LCD.c ****         }
1110:Generated_Source\PSoC4/LCD.c ****     }
1111:Generated_Source\PSoC4/LCD.c **** 
1112:Generated_Source\PSoC4/LCD.c **** #endif /* ((LCD_CUSTOM_CHAR_SET == LCD_VERTICAL_BG) || \
1113:Generated_Source\PSoC4/LCD.c ****                 (LCD_CUSTOM_CHAR_SET == LCD_HORIZONTAL_BG)) */
1114:Generated_Source\PSoC4/LCD.c **** 
1115:Generated_Source\PSoC4/LCD.c **** 
1116:Generated_Source\PSoC4/LCD.c **** #if (LCD_COMMAND_FORMAT == LCD_NXP_PCF2119X)
1117:Generated_Source\PSoC4/LCD.c **** 
1118:Generated_Source\PSoC4/LCD.c ****     /*******************************************************************************
1119:Generated_Source\PSoC4/LCD.c ****     * Function Name: LCD_SendCmd
1120:Generated_Source\PSoC4/LCD.c ****     ********************************************************************************
1121:Generated_Source\PSoC4/LCD.c ****     *
1122:Generated_Source\PSoC4/LCD.c ****     * Summary:
1123:Generated_Source\PSoC4/LCD.c ****     *  This function used to send the specific for NXP PCF2119X commands that are 
1124:Generated_Source\PSoC4/LCD.c ****     *  used to configure the LCD panel.
1125:Generated_Source\PSoC4/LCD.c ****     *
1126:Generated_Source\PSoC4/LCD.c ****     * Parameters:
1127:Generated_Source\PSoC4/LCD.c ****     *  None
1128:Generated_Source\PSoC4/LCD.c ****     *
1129:Generated_Source\PSoC4/LCD.c ****     * Return:
1130:Generated_Source\PSoC4/LCD.c ****     *  None
1131:Generated_Source\PSoC4/LCD.c ****     *
1132:Generated_Source\PSoC4/LCD.c ****     *******************************************************************************/
1133:Generated_Source\PSoC4/LCD.c ****     static void LCD_SendCmd(uint8 cmd) CYREENTRANT
1134:Generated_Source\PSoC4/LCD.c ****     {
 161              		.loc 1 1134 0
 162              		.cfi_startproc
 163              		@ args = 0, pretend = 0, frame = 0
 164              		@ frame_needed = 0, uses_anonymous_args = 0
 165              	.LVL8:
 166 0000 10B5     		push	{r4, lr}
 167              		.cfi_def_cfa_offset 8
 168              		.cfi_offset 4, -8
 169              		.cfi_offset 14, -4
1135:Generated_Source\PSoC4/LCD.c ****         LCD_buff[0u] = LCD_COMMAND_SEND;
 170              		.loc 1 1135 0
 171 0002 044B     		ldr	r3, .L14
 172 0004 0022     		movs	r2, #0
 173 0006 1A71     		strb	r2, [r3, #4]
1136:Generated_Source\PSoC4/LCD.c ****         LCD_buff[1u] = cmd;
ARM GAS  C:\Users\Kyle\AppData\Local\Temp\cc3JtO6L.s 			page 24


 174              		.loc 1 1136 0
 175 0008 5871     		strb	r0, [r3, #5]
1137:Generated_Source\PSoC4/LCD.c ****         LCD_buffIndex = LCD_LENGTH_2_BYTES;
 176              		.loc 1 1137 0
 177 000a 0232     		adds	r2, r2, #2
 178 000c 1A60     		str	r2, [r3]
1138:Generated_Source\PSoC4/LCD.c ****         
1139:Generated_Source\PSoC4/LCD.c ****         LCD_SendSequence();
 179              		.loc 1 1139 0
 180 000e FFF7FEFF 		bl	LCD_SendSequence
 181              	.LVL9:
1140:Generated_Source\PSoC4/LCD.c ****     }
 182              		.loc 1 1140 0
 183              		@ sp needed
 184 0012 10BD     		pop	{r4, pc}
 185              	.L15:
 186              		.align	2
 187              	.L14:
 188 0014 00000000 		.word	.LANCHOR0
 189              		.cfi_endproc
 190              	.LFE19:
 191              		.size	LCD_SendCmd, .-LCD_SendCmd
 192              		.section	.text.LCD_Position,"ax",%progbits
 193              		.align	2
 194              		.global	LCD_Position
 195              		.code	16
 196              		.thumb_func
 197              		.type	LCD_Position, %function
 198              	LCD_Position:
 199              	.LFB5:
 260:Generated_Source\PSoC4/LCD.c ****     /* Write command pattern for "Set cursor position" to buffer */
 200              		.loc 1 260 0
 201              		.cfi_startproc
 202              		@ args = 0, pretend = 0, frame = 0
 203              		@ frame_needed = 0, uses_anonymous_args = 0
 204              	.LVL10:
 205 0000 70B5     		push	{r4, r5, r6, lr}
 206              		.cfi_def_cfa_offset 16
 207              		.cfi_offset 4, -16
 208              		.cfi_offset 5, -12
 209              		.cfi_offset 6, -8
 210              		.cfi_offset 14, -4
 211 0002 0500     		movs	r5, r0
 212 0004 0C00     		movs	r4, r1
 262:Generated_Source\PSoC4/LCD.c **** 
 213              		.loc 1 262 0
 214 0006 0320     		movs	r0, #3
 215              	.LVL11:
 216 0008 FFF7FEFF 		bl	LCD_WrCntrlPatt
 217              	.LVL12:
 273:Generated_Source\PSoC4/LCD.c ****         {
 218              		.loc 1 273 0
 219 000c 012D     		cmp	r5, #1
 220 000e 0CD0     		beq	.L18
 221 0010 002D     		cmp	r5, #0
 222 0012 04D0     		beq	.L19
 223 0014 022D     		cmp	r5, #2
ARM GAS  C:\Users\Kyle\AppData\Local\Temp\cc3JtO6L.s 			page 25


 224 0016 0ED0     		beq	.L20
 225 0018 032D     		cmp	r5, #3
 226 001a 12D0     		beq	.L21
 227 001c 16E0     		b	.L17
 228              	.L19:
 278:Generated_Source\PSoC4/LCD.c ****                 #else
 229              		.loc 1 278 0
 230 001e 2000     		movs	r0, r4
 231 0020 8038     		subs	r0, r0, #128
 232 0022 C0B2     		uxtb	r0, r0
 233 0024 FFF7FEFF 		bl	LCD_WrDataToBuff
 234              	.LVL13:
 283:Generated_Source\PSoC4/LCD.c ****             
 235              		.loc 1 283 0
 236 0028 10E0     		b	.L17
 237              	.L18:
 286:Generated_Source\PSoC4/LCD.c ****                 break;
 238              		.loc 1 286 0
 239 002a 2000     		movs	r0, r4
 240 002c 4038     		subs	r0, r0, #64
 241 002e C0B2     		uxtb	r0, r0
 242 0030 FFF7FEFF 		bl	LCD_WrDataToBuff
 243              	.LVL14:
 287:Generated_Source\PSoC4/LCD.c ****             
 244              		.loc 1 287 0
 245 0034 0AE0     		b	.L17
 246              	.L20:
 290:Generated_Source\PSoC4/LCD.c ****                 break;
 247              		.loc 1 290 0
 248 0036 2000     		movs	r0, r4
 249 0038 6C38     		subs	r0, r0, #108
 250 003a C0B2     		uxtb	r0, r0
 251 003c FFF7FEFF 		bl	LCD_WrDataToBuff
 252              	.LVL15:
 291:Generated_Source\PSoC4/LCD.c ****             
 253              		.loc 1 291 0
 254 0040 04E0     		b	.L17
 255              	.L21:
 294:Generated_Source\PSoC4/LCD.c ****                 break;
 256              		.loc 1 294 0
 257 0042 2000     		movs	r0, r4
 258 0044 2C38     		subs	r0, r0, #44
 259 0046 C0B2     		uxtb	r0, r0
 260 0048 FFF7FEFF 		bl	LCD_WrDataToBuff
 261              	.LVL16:
 262              	.L17:
 304:Generated_Source\PSoC4/LCD.c **** }
 263              		.loc 1 304 0
 264 004c FFF7FEFF 		bl	LCD_SendSequence
 265              	.LVL17:
 305:Generated_Source\PSoC4/LCD.c **** 
 266              		.loc 1 305 0
 267              		@ sp needed
 268 0050 70BD     		pop	{r4, r5, r6, pc}
 269              		.cfi_endproc
 270              	.LFE5:
 271              		.size	LCD_Position, .-LCD_Position
ARM GAS  C:\Users\Kyle\AppData\Local\Temp\cc3JtO6L.s 			page 26


 272 0052 C046     		.section	.text.LCD_WriteData,"ax",%progbits
 273              		.align	2
 274              		.global	LCD_WriteData
 275              		.code	16
 276              		.thumb_func
 277              		.type	LCD_WriteData, %function
 278              	LCD_WriteData:
 279              	.LFB6:
 328:Generated_Source\PSoC4/LCD.c ****     /* Send required control byte value to address data register */
 280              		.loc 1 328 0
 281              		.cfi_startproc
 282              		@ args = 0, pretend = 0, frame = 0
 283              		@ frame_needed = 0, uses_anonymous_args = 0
 284              	.LVL18:
 285 0000 10B5     		push	{r4, lr}
 286              		.cfi_def_cfa_offset 8
 287              		.cfi_offset 4, -8
 288              		.cfi_offset 14, -4
 289 0002 0400     		movs	r4, r0
 330:Generated_Source\PSoC4/LCD.c **** 
 290              		.loc 1 330 0
 291 0004 0020     		movs	r0, #0
 292              	.LVL19:
 293 0006 FFF7FEFF 		bl	LCD_WrCntrlPatt
 294              	.LVL20:
 333:Generated_Source\PSoC4/LCD.c **** 
 295              		.loc 1 333 0
 296 000a 2000     		movs	r0, r4
 297 000c FFF7FEFF 		bl	LCD_WrDataToBuff
 298              	.LVL21:
 336:Generated_Source\PSoC4/LCD.c **** }
 299              		.loc 1 336 0
 300 0010 FFF7FEFF 		bl	LCD_SendSequence
 301              	.LVL22:
 337:Generated_Source\PSoC4/LCD.c **** 
 302              		.loc 1 337 0
 303              		@ sp needed
 304 0014 10BD     		pop	{r4, pc}
 305              		.cfi_endproc
 306              	.LFE6:
 307              		.size	LCD_WriteData, .-LCD_WriteData
 308 0016 C046     		.section	.text.LCD_WriteControl,"ax",%progbits
 309              		.align	2
 310              		.global	LCD_WriteControl
 311              		.code	16
 312              		.thumb_func
 313              		.type	LCD_WriteControl, %function
 314              	LCD_WriteControl:
 315              	.LFB8:
 408:Generated_Source\PSoC4/LCD.c ****     uint8 cmdIndx = 0u;
 316              		.loc 1 408 0
 317              		.cfi_startproc
 318              		@ args = 0, pretend = 0, frame = 0
 319              		@ frame_needed = 0, uses_anonymous_args = 0
 320              	.LVL23:
 321 0000 10B5     		push	{r4, lr}
 322              		.cfi_def_cfa_offset 8
ARM GAS  C:\Users\Kyle\AppData\Local\Temp\cc3JtO6L.s 			page 27


 323              		.cfi_offset 4, -8
 324              		.cfi_offset 14, -4
 325 0002 0400     		movs	r4, r0
 326              	.LVL24:
 409:Generated_Source\PSoC4/LCD.c ****     
 327              		.loc 1 409 0
 328 0004 0020     		movs	r0, #0
 329              	.LVL25:
 411:Generated_Source\PSoC4/LCD.c ****     {   
 330              		.loc 1 411 0
 331 0006 1AE0     		b	.L24
 332              	.LVL26:
 333              	.L29:
 413:Generated_Source\PSoC4/LCD.c ****         {
 334              		.loc 1 413 0
 335 0008 4300     		lsls	r3, r0, #1
 336 000a 1B18     		adds	r3, r3, r0
 337 000c 0D4A     		ldr	r2, .L30
 338 000e D318     		adds	r3, r2, r3
 339 0010 9B78     		ldrb	r3, [r3, #2]
 340 0012 A342     		cmp	r3, r4
 341 0014 11D1     		bne	.L25
 416:Generated_Source\PSoC4/LCD.c **** 
 342              		.loc 1 416 0
 343 0016 FFF7FEFF 		bl	LCD_WrCntrlPatt
 344              	.LVL27:
 419:Generated_Source\PSoC4/LCD.c **** 
 345              		.loc 1 419 0
 346 001a FFF7FEFF 		bl	LCD_SendSequence
 347              	.LVL28:
 422:Generated_Source\PSoC4/LCD.c ****             {
 348              		.loc 1 422 0
 349 001e 082C     		cmp	r4, #8
 350 0020 07D0     		beq	.L27
 351 0022 04D8     		bhi	.L28
 352 0024 013C     		subs	r4, r4, #1
 353 0026 E4B2     		uxtb	r4, r4
 354 0028 012C     		cmp	r4, #1
 355 002a 0AD8     		bhi	.L23
 356 002c 01E0     		b	.L27
 357              	.L28:
 358 002e 0E2C     		cmp	r4, #14
 359 0030 07D1     		bne	.L23
 360              	.L27:
 428:Generated_Source\PSoC4/LCD.c ****                     break;
 361              		.loc 1 428 0
 362 0032 0548     		ldr	r0, .L30+4
 363 0034 FFF7FEFF 		bl	CyDelayUs
 364              	.LVL29:
 429:Generated_Source\PSoC4/LCD.c ****                 default:
 365              		.loc 1 429 0
 366 0038 03E0     		b	.L23
 367              	.LVL30:
 368              	.L25:
 437:Generated_Source\PSoC4/LCD.c ****     } 
 369              		.loc 1 437 0
 370 003a 0130     		adds	r0, r0, #1
ARM GAS  C:\Users\Kyle\AppData\Local\Temp\cc3JtO6L.s 			page 28


 371              	.LVL31:
 372 003c C0B2     		uxtb	r0, r0
 373              	.LVL32:
 374              	.L24:
 411:Generated_Source\PSoC4/LCD.c ****     {   
 375              		.loc 1 411 0
 376 003e 0F28     		cmp	r0, #15
 377 0040 E2D9     		bls	.L29
 378              	.LVL33:
 379              	.L23:
 439:Generated_Source\PSoC4/LCD.c **** 
 380              		.loc 1 439 0
 381              		@ sp needed
 382 0042 10BD     		pop	{r4, pc}
 383              	.L31:
 384              		.align	2
 385              	.L30:
 386 0044 00000000 		.word	.LANCHOR1
 387 0048 DC050000 		.word	1500
 388              		.cfi_endproc
 389              	.LFE8:
 390              		.size	LCD_WriteControl, .-LCD_WriteControl
 391              		.section	.text.LCD_Init,"ax",%progbits
 392              		.align	2
 393              		.global	LCD_Init
 394              		.code	16
 395              		.thumb_func
 396              		.type	LCD_Init, %function
 397              	LCD_Init:
 398              	.LFB1:
 116:Generated_Source\PSoC4/LCD.c ****     /* Following part of code is only applicable for NXP LCDs */
 399              		.loc 1 116 0
 400              		.cfi_startproc
 401              		@ args = 0, pretend = 0, frame = 0
 402              		@ frame_needed = 0, uses_anonymous_args = 0
 403 0000 10B5     		push	{r4, lr}
 404              		.cfi_def_cfa_offset 8
 405              		.cfi_offset 4, -8
 406              		.cfi_offset 14, -4
 120:Generated_Source\PSoC4/LCD.c ****         /* Split screen configuration  */
 407              		.loc 1 120 0
 408 0002 3520     		movs	r0, #53
 409 0004 FFF7FEFF 		bl	LCD_SendCmd
 410              	.LVL34:
 122:Generated_Source\PSoC4/LCD.c ****         /* LCD Module format: left to right column, and top to bottom rows  */
 411              		.loc 1 122 0
 412 0008 0220     		movs	r0, #2
 413 000a FFF7FEFF 		bl	LCD_SendCmd
 414              	.LVL35:
 124:Generated_Source\PSoC4/LCD.c ****         /* Icon mode not supported. Disable all icon enable settings */
 415              		.loc 1 124 0
 416 000e 0420     		movs	r0, #4
 417 0010 FFF7FEFF 		bl	LCD_SendCmd
 418              	.LVL36:
 126:Generated_Source\PSoC4/LCD.c ****         /* Set LCD bias voltage to 4.38 V since LCD module datasheet recommends 4.4 V */
 419              		.loc 1 126 0
 420 0014 0820     		movs	r0, #8
ARM GAS  C:\Users\Kyle\AppData\Local\Temp\cc3JtO6L.s 			page 29


 421 0016 FFF7FEFF 		bl	LCD_SendCmd
 422              	.LVL37:
 128:Generated_Source\PSoC4/LCD.c ****         /* Select Standard Instruction set, 2x16 display */
 423              		.loc 1 128 0
 424 001a A020     		movs	r0, #160
 425 001c FFF7FEFF 		bl	LCD_SendCmd
 426              	.LVL38:
 130:Generated_Source\PSoC4/LCD.c ****     #endif /* (LCD_COMMAND_FORMAT == LCD_NXP_PCF2119X) */
 427              		.loc 1 130 0
 428 0020 3420     		movs	r0, #52
 429 0022 FFF7FEFF 		bl	LCD_SendCmd
 430              	.LVL39:
 134:Generated_Source\PSoC4/LCD.c ****     /* Turn on both display and cursor */
 431              		.loc 1 134 0
 432 0026 2420     		movs	r0, #36
 433 0028 FFF7FEFF 		bl	LCD_WriteControl
 434              	.LVL40:
 136:Generated_Source\PSoC4/LCD.c ****     /* Turn on cursor auto incrementing */
 435              		.loc 1 136 0
 436 002c 0E20     		movs	r0, #14
 437 002e FFF7FEFF 		bl	LCD_WriteControl
 438              	.LVL41:
 138:Generated_Source\PSoC4/LCD.c ****     /* Turn off cursor underlining */
 439              		.loc 1 138 0
 440 0032 0620     		movs	r0, #6
 441 0034 FFF7FEFF 		bl	LCD_WriteControl
 442              	.LVL42:
 140:Generated_Source\PSoC4/LCD.c ****     /* Clear the Display */
 443              		.loc 1 140 0
 444 0038 0C20     		movs	r0, #12
 445 003a FFF7FEFF 		bl	LCD_WriteControl
 446              	.LVL43:
 142:Generated_Source\PSoC4/LCD.c ****     
 447              		.loc 1 142 0
 448 003e 0120     		movs	r0, #1
 449 0040 FFF7FEFF 		bl	LCD_WriteControl
 450              	.LVL44:
 148:Generated_Source\PSoC4/LCD.c **** 
 451              		.loc 1 148 0
 452              		@ sp needed
 453 0044 10BD     		pop	{r4, pc}
 454              		.cfi_endproc
 455              	.LFE1:
 456              		.size	LCD_Init, .-LCD_Init
 457 0046 C046     		.section	.text.LCD_Enable,"ax",%progbits
 458              		.align	2
 459              		.global	LCD_Enable
 460              		.code	16
 461              		.thumb_func
 462              		.type	LCD_Enable, %function
 463              	LCD_Enable:
 464              	.LFB2:
 173:Generated_Source\PSoC4/LCD.c ****     LCD_DisplayOn();
 465              		.loc 1 173 0
 466              		.cfi_startproc
 467              		@ args = 0, pretend = 0, frame = 0
 468              		@ frame_needed = 0, uses_anonymous_args = 0
ARM GAS  C:\Users\Kyle\AppData\Local\Temp\cc3JtO6L.s 			page 30


 469 0000 10B5     		push	{r4, lr}
 470              		.cfi_def_cfa_offset 8
 471              		.cfi_offset 4, -8
 472              		.cfi_offset 14, -4
 174:Generated_Source\PSoC4/LCD.c **** }
 473              		.loc 1 174 0
 474 0002 0C20     		movs	r0, #12
 475 0004 FFF7FEFF 		bl	LCD_WriteControl
 476              	.LVL45:
 175:Generated_Source\PSoC4/LCD.c **** 
 477              		.loc 1 175 0
 478              		@ sp needed
 479 0008 10BD     		pop	{r4, pc}
 480              		.cfi_endproc
 481              	.LFE2:
 482              		.size	LCD_Enable, .-LCD_Enable
 483 000a C046     		.section	.text.LCD_Start,"ax",%progbits
 484              		.align	2
 485              		.global	LCD_Start
 486              		.code	16
 487              		.thumb_func
 488              		.type	LCD_Start, %function
 489              	LCD_Start:
 490              	.LFB3:
 202:Generated_Source\PSoC4/LCD.c ****     /* If not initialized then perform initialization */
 491              		.loc 1 202 0
 492              		.cfi_startproc
 493              		@ args = 0, pretend = 0, frame = 0
 494              		@ frame_needed = 0, uses_anonymous_args = 0
 495 0000 10B5     		push	{r4, lr}
 496              		.cfi_def_cfa_offset 8
 497              		.cfi_offset 4, -8
 498              		.cfi_offset 14, -4
 204:Generated_Source\PSoC4/LCD.c ****     {
 499              		.loc 1 204 0
 500 0002 064B     		ldr	r3, .L36
 501 0004 1B79     		ldrb	r3, [r3, #4]
 502 0006 002B     		cmp	r3, #0
 503 0008 04D1     		bne	.L35
 206:Generated_Source\PSoC4/LCD.c ****         LCD_initVar = 1u;
 504              		.loc 1 206 0
 505 000a FFF7FEFF 		bl	LCD_Init
 506              	.LVL46:
 207:Generated_Source\PSoC4/LCD.c ****     }
 507              		.loc 1 207 0
 508 000e 0122     		movs	r2, #1
 509 0010 024B     		ldr	r3, .L36
 510 0012 1A71     		strb	r2, [r3, #4]
 511              	.L35:
 211:Generated_Source\PSoC4/LCD.c **** }
 512              		.loc 1 211 0
 513 0014 FFF7FEFF 		bl	LCD_Enable
 514              	.LVL47:
 212:Generated_Source\PSoC4/LCD.c **** 
 515              		.loc 1 212 0
 516              		@ sp needed
 517 0018 10BD     		pop	{r4, pc}
ARM GAS  C:\Users\Kyle\AppData\Local\Temp\cc3JtO6L.s 			page 31


 518              	.L37:
 519 001a C046     		.align	2
 520              	.L36:
 521 001c 00010000 		.word	.LANCHOR3
 522              		.cfi_endproc
 523              	.LFE3:
 524              		.size	LCD_Start, .-LCD_Start
 525              		.section	.text.LCD_Stop,"ax",%progbits
 526              		.align	2
 527              		.global	LCD_Stop
 528              		.code	16
 529              		.thumb_func
 530              		.type	LCD_Stop, %function
 531              	LCD_Stop:
 532              	.LFB4:
 234:Generated_Source\PSoC4/LCD.c ****     LCD_DisplayOff();
 533              		.loc 1 234 0
 534              		.cfi_startproc
 535              		@ args = 0, pretend = 0, frame = 0
 536              		@ frame_needed = 0, uses_anonymous_args = 0
 537 0000 10B5     		push	{r4, lr}
 538              		.cfi_def_cfa_offset 8
 539              		.cfi_offset 4, -8
 540              		.cfi_offset 14, -4
 235:Generated_Source\PSoC4/LCD.c **** }
 541              		.loc 1 235 0
 542 0002 0820     		movs	r0, #8
 543 0004 FFF7FEFF 		bl	LCD_WriteControl
 544              	.LVL48:
 236:Generated_Source\PSoC4/LCD.c **** 
 545              		.loc 1 236 0
 546              		@ sp needed
 547 0008 10BD     		pop	{r4, pc}
 548              		.cfi_endproc
 549              	.LFE4:
 550              		.size	LCD_Stop, .-LCD_Stop
 551 000a C046     		.section	.text.LCD_HandleCustomCommand,"ax",%progbits
 552              		.align	2
 553              		.global	LCD_HandleCustomCommand
 554              		.code	16
 555              		.thumb_func
 556              		.type	LCD_HandleCustomCommand, %function
 557              	LCD_HandleCustomCommand:
 558              	.LFB11:
 539:Generated_Source\PSoC4/LCD.c ****     uint8 i;
 559              		.loc 1 539 0
 560              		.cfi_startproc
 561              		@ args = 0, pretend = 0, frame = 0
 562              		@ frame_needed = 0, uses_anonymous_args = 0
 563              	.LVL49:
 564 0000 70B5     		push	{r4, r5, r6, lr}
 565              		.cfi_def_cfa_offset 16
 566              		.cfi_offset 4, -16
 567              		.cfi_offset 5, -12
 568              		.cfi_offset 6, -8
 569              		.cfi_offset 14, -4
 570 0002 0D00     		movs	r5, r1
ARM GAS  C:\Users\Kyle\AppData\Local\Temp\cc3JtO6L.s 			page 32


 571 0004 1600     		movs	r6, r2
 572              	.LVL50:
 542:Generated_Source\PSoC4/LCD.c ****     
 573              		.loc 1 542 0
 574 0006 0023     		movs	r3, #0
 544:Generated_Source\PSoC4/LCD.c ****     {   
 575              		.loc 1 544 0
 576 0008 17E0     		b	.L40
 577              	.LVL51:
 578              	.L45:
 546:Generated_Source\PSoC4/LCD.c ****         {
 579              		.loc 1 546 0
 580 000a 5A00     		lsls	r2, r3, #1
 581 000c D218     		adds	r2, r2, r3
 582 000e 0C49     		ldr	r1, .L46
 583 0010 8A18     		adds	r2, r1, r2
 584 0012 9278     		ldrb	r2, [r2, #2]
 585 0014 8242     		cmp	r2, r0
 586 0016 0ED1     		bne	.L41
 549:Generated_Source\PSoC4/LCD.c **** 
 587              		.loc 1 549 0
 588 0018 1800     		movs	r0, r3
 589              	.LVL52:
 590 001a FFF7FEFF 		bl	LCD_WrCntrlPatt
 591              	.LVL53:
 551:Generated_Source\PSoC4/LCD.c ****             {
 592              		.loc 1 551 0
 593 001e 0024     		movs	r4, #0
 594 0020 04E0     		b	.L42
 595              	.LVL54:
 596              	.L43:
 554:Generated_Source\PSoC4/LCD.c **** 
 597              		.loc 1 554 0 discriminator 3
 598 0022 305D     		ldrb	r0, [r6, r4]
 599              	.LVL55:
 557:Generated_Source\PSoC4/LCD.c ****             }
 600              		.loc 1 557 0 discriminator 3
 601 0024 FFF7FEFF 		bl	LCD_WrDataToBuff
 602              	.LVL56:
 551:Generated_Source\PSoC4/LCD.c ****             {
 603              		.loc 1 551 0 discriminator 3
 604 0028 0134     		adds	r4, r4, #1
 605              	.LVL57:
 606 002a E4B2     		uxtb	r4, r4
 607              	.LVL58:
 608              	.L42:
 551:Generated_Source\PSoC4/LCD.c ****             {
 609              		.loc 1 551 0 is_stmt 0 discriminator 1
 610 002c AC42     		cmp	r4, r5
 611 002e F8D3     		bcc	.L43
 561:Generated_Source\PSoC4/LCD.c ****             /* The command index was found - break while() loop */
 612              		.loc 1 561 0 is_stmt 1
 613 0030 FFF7FEFF 		bl	LCD_SendSequence
 614              	.LVL59:
 563:Generated_Source\PSoC4/LCD.c ****         }
 615              		.loc 1 563 0
 616 0034 03E0     		b	.L39
ARM GAS  C:\Users\Kyle\AppData\Local\Temp\cc3JtO6L.s 			page 33


 617              	.LVL60:
 618              	.L41:
 566:Generated_Source\PSoC4/LCD.c ****     } 
 619              		.loc 1 566 0
 620 0036 0133     		adds	r3, r3, #1
 621              	.LVL61:
 622 0038 DBB2     		uxtb	r3, r3
 623              	.LVL62:
 624              	.L40:
 544:Generated_Source\PSoC4/LCD.c ****     {   
 625              		.loc 1 544 0
 626 003a 0F2B     		cmp	r3, #15
 627 003c E5D9     		bls	.L45
 628              	.LVL63:
 629              	.L39:
 568:Generated_Source\PSoC4/LCD.c **** 
 630              		.loc 1 568 0
 631              		@ sp needed
 632              	.LVL64:
 633 003e 70BD     		pop	{r4, r5, r6, pc}
 634              	.L47:
 635              		.align	2
 636              	.L46:
 637 0040 00000000 		.word	.LANCHOR1
 638              		.cfi_endproc
 639              	.LFE11:
 640              		.size	LCD_HandleCustomCommand, .-LCD_HandleCustomCommand
 641              		.section	.text.LCD_HandleOneByteCommand,"ax",%progbits
 642              		.align	2
 643              		.global	LCD_HandleOneByteCommand
 644              		.code	16
 645              		.thumb_func
 646              		.type	LCD_HandleOneByteCommand, %function
 647              	LCD_HandleOneByteCommand:
 648              	.LFB12:
 591:Generated_Source\PSoC4/LCD.c ****     uint8 oneByteArray[LCD_ONE_BYTE_LEN];
 649              		.loc 1 591 0
 650              		.cfi_startproc
 651              		@ args = 0, pretend = 0, frame = 8
 652              		@ frame_needed = 0, uses_anonymous_args = 0
 653              	.LVL65:
 654 0000 00B5     		push	{lr}
 655              		.cfi_def_cfa_offset 4
 656              		.cfi_offset 14, -4
 657 0002 83B0     		sub	sp, sp, #12
 658              		.cfi_def_cfa_offset 16
 594:Generated_Source\PSoC4/LCD.c ****     
 659              		.loc 1 594 0
 660 0004 01AA     		add	r2, sp, #4
 661 0006 1170     		strb	r1, [r2]
 596:Generated_Source\PSoC4/LCD.c **** }
 662              		.loc 1 596 0
 663 0008 0121     		movs	r1, #1
 664              	.LVL66:
 665 000a FFF7FEFF 		bl	LCD_HandleCustomCommand
 666              	.LVL67:
 597:Generated_Source\PSoC4/LCD.c **** 
ARM GAS  C:\Users\Kyle\AppData\Local\Temp\cc3JtO6L.s 			page 34


 667              		.loc 1 597 0
 668 000e 03B0     		add	sp, sp, #12
 669              		@ sp needed
 670 0010 00BD     		pop	{pc}
 671              		.cfi_endproc
 672              	.LFE12:
 673              		.size	LCD_HandleOneByteCommand, .-LCD_HandleOneByteCommand
 674 0012 C046     		.section	.text.LCD_PrintString,"ax",%progbits
 675              		.align	2
 676              		.global	LCD_PrintString
 677              		.code	16
 678              		.thumb_func
 679              		.type	LCD_PrintString, %function
 680              	LCD_PrintString:
 681              	.LFB13:
 620:Generated_Source\PSoC4/LCD.c ****     uint8 chIdx = 1u;
 682              		.loc 1 620 0
 683              		.cfi_startproc
 684              		@ args = 0, pretend = 0, frame = 0
 685              		@ frame_needed = 0, uses_anonymous_args = 0
 686              	.LVL68:
 687 0000 70B5     		push	{r4, r5, r6, lr}
 688              		.cfi_def_cfa_offset 16
 689              		.cfi_offset 4, -16
 690              		.cfi_offset 5, -12
 691              		.cfi_offset 6, -8
 692              		.cfi_offset 14, -4
 693 0002 0600     		movs	r6, r0
 694              	.LVL69:
 622:Generated_Source\PSoC4/LCD.c **** 
 695              		.loc 1 622 0
 696 0004 0478     		ldrb	r4, [r0]
 697              	.LVL70:
 625:Generated_Source\PSoC4/LCD.c **** 
 698              		.loc 1 625 0
 699 0006 0020     		movs	r0, #0
 700              	.LVL71:
 701 0008 FFF7FEFF 		bl	LCD_WrCntrlPatt
 702              	.LVL72:
 621:Generated_Source\PSoC4/LCD.c ****     char8 current = *string;
 703              		.loc 1 621 0
 704 000c 0125     		movs	r5, #1
 628:Generated_Source\PSoC4/LCD.c ****     {
 705              		.loc 1 628 0
 706 000e 0EE0     		b	.L50
 707              	.LVL73:
 708              	.L53:
 637:Generated_Source\PSoC4/LCD.c ****             {
 709              		.loc 1 637 0
 710 0010 072C     		cmp	r4, #7
 711 0012 03D8     		bhi	.L51
 639:Generated_Source\PSoC4/LCD.c ****             }
 712              		.loc 1 639 0
 713 0014 2000     		movs	r0, r4
 714 0016 FFF7FEFF 		bl	LCD_WrDataToBuff
 715              	.LVL74:
 716 001a 05E0     		b	.L52
ARM GAS  C:\Users\Kyle\AppData\Local\Temp\cc3JtO6L.s 			page 35


 717              	.L51:
 643:Generated_Source\PSoC4/LCD.c ****             }
 718              		.loc 1 643 0
 719 001c 8020     		movs	r0, #128
 720 001e 4042     		rsbs	r0, r0, #0
 721 0020 4440     		eors	r4, r0
 722              	.LVL75:
 723 0022 E0B2     		uxtb	r0, r4
 724 0024 FFF7FEFF 		bl	LCD_WrDataToBuff
 725              	.LVL76:
 726              	.L52:
 652:Generated_Source\PSoC4/LCD.c ****         chIdx++;
 727              		.loc 1 652 0
 728 0028 745D     		ldrb	r4, [r6, r5]
 729              	.LVL77:
 653:Generated_Source\PSoC4/LCD.c ****     }
 730              		.loc 1 653 0
 731 002a 0135     		adds	r5, r5, #1
 732              	.LVL78:
 733 002c EDB2     		uxtb	r5, r5
 734              	.LVL79:
 735              	.L50:
 628:Generated_Source\PSoC4/LCD.c ****     {
 736              		.loc 1 628 0
 737 002e 002C     		cmp	r4, #0
 738 0030 EED1     		bne	.L53
 657:Generated_Source\PSoC4/LCD.c **** }
 739              		.loc 1 657 0
 740 0032 FFF7FEFF 		bl	LCD_SendSequence
 741              	.LVL80:
 658:Generated_Source\PSoC4/LCD.c **** 
 742              		.loc 1 658 0
 743              		@ sp needed
 744              	.LVL81:
 745              	.LVL82:
 746              	.LVL83:
 747 0036 70BD     		pop	{r4, r5, r6, pc}
 748              		.cfi_endproc
 749              	.LFE13:
 750              		.size	LCD_PrintString, .-LCD_PrintString
 751              		.section	.text.LCD_PutChar,"ax",%progbits
 752              		.align	2
 753              		.global	LCD_PutChar
 754              		.code	16
 755              		.thumb_func
 756              		.type	LCD_PutChar, %function
 757              	LCD_PutChar:
 758              	.LFB14:
 681:Generated_Source\PSoC4/LCD.c ****     /* Send one byte of data with I2C_LCD_WriteData() */
 759              		.loc 1 681 0
 760              		.cfi_startproc
 761              		@ args = 0, pretend = 0, frame = 0
 762              		@ frame_needed = 0, uses_anonymous_args = 0
 763              	.LVL84:
 764 0000 10B5     		push	{r4, lr}
 765              		.cfi_def_cfa_offset 8
 766              		.cfi_offset 4, -8
ARM GAS  C:\Users\Kyle\AppData\Local\Temp\cc3JtO6L.s 			page 36


 767              		.cfi_offset 14, -4
 689:Generated_Source\PSoC4/LCD.c ****         {
 768              		.loc 1 689 0
 769 0002 0728     		cmp	r0, #7
 770 0004 02D8     		bhi	.L55
 691:Generated_Source\PSoC4/LCD.c ****         }
 771              		.loc 1 691 0
 772 0006 FFF7FEFF 		bl	LCD_WriteData
 773              	.LVL85:
 774 000a 05E0     		b	.L54
 775              	.LVL86:
 776              	.L55:
 695:Generated_Source\PSoC4/LCD.c ****         }
 777              		.loc 1 695 0
 778 000c 8023     		movs	r3, #128
 779 000e 5B42     		rsbs	r3, r3, #0
 780 0010 5840     		eors	r0, r3
 781              	.LVL87:
 782 0012 C0B2     		uxtb	r0, r0
 783 0014 FFF7FEFF 		bl	LCD_WriteData
 784              	.LVL88:
 785              	.L54:
 700:Generated_Source\PSoC4/LCD.c **** 
 786              		.loc 1 700 0
 787              		@ sp needed
 788 0018 10BD     		pop	{r4, pc}
 789              		.cfi_endproc
 790              	.LFE14:
 791              		.size	LCD_PutChar, .-LCD_PutChar
 792 001a C046     		.section	.text.LCD_PrintInt8,"ax",%progbits
 793              		.align	2
 794              		.global	LCD_PrintInt8
 795              		.code	16
 796              		.thumb_func
 797              		.type	LCD_PrintInt8, %function
 798              	LCD_PrintInt8:
 799              	.LFB15:
 721:Generated_Source\PSoC4/LCD.c ****     static char8 const CYCODE LCD_hex[16u] = "0123456789ABCDEF";
 800              		.loc 1 721 0
 801              		.cfi_startproc
 802              		@ args = 0, pretend = 0, frame = 0
 803              		@ frame_needed = 0, uses_anonymous_args = 0
 804              	.LVL89:
 805 0000 F8B5     		push	{r3, r4, r5, r6, r7, lr}
 806              		.cfi_def_cfa_offset 24
 807              		.cfi_offset 3, -24
 808              		.cfi_offset 4, -20
 809              		.cfi_offset 5, -16
 810              		.cfi_offset 6, -12
 811              		.cfi_offset 7, -8
 812              		.cfi_offset 14, -4
 813 0002 0400     		movs	r4, r0
 725:Generated_Source\PSoC4/LCD.c **** 
 814              		.loc 1 725 0
 815 0004 0020     		movs	r0, #0
 816              	.LVL90:
 817 0006 FFF7FEFF 		bl	LCD_WrCntrlPatt
ARM GAS  C:\Users\Kyle\AppData\Local\Temp\cc3JtO6L.s 			page 37


 818              	.LVL91:
 734:Generated_Source\PSoC4/LCD.c ****                                                ^ LCD_CHARACTER_SET_S_MASK );
 819              		.loc 1 734 0
 820 000a 2309     		lsrs	r3, r4, #4
 821 000c 0A4F     		ldr	r7, .L58
 822 000e 3026     		movs	r6, #48
 823 0010 FB18     		adds	r3, r7, r3
 824 0012 985D     		ldrb	r0, [r3, r6]
 825 0014 8025     		movs	r5, #128
 826 0016 6D42     		rsbs	r5, r5, #0
 827 0018 6840     		eors	r0, r5
 828 001a C0B2     		uxtb	r0, r0
 829 001c FFF7FEFF 		bl	LCD_WrDataToBuff
 830              	.LVL92:
 736:Generated_Source\PSoC4/LCD.c ****                                                LCD_CHARACTER_SET_S_MASK);
 831              		.loc 1 736 0
 832 0020 0F23     		movs	r3, #15
 833 0022 1C40     		ands	r4, r3
 834 0024 3C19     		adds	r4, r7, r4
 835 0026 A05D     		ldrb	r0, [r4, r6]
 836 0028 6840     		eors	r0, r5
 837 002a C0B2     		uxtb	r0, r0
 838 002c FFF7FEFF 		bl	LCD_WrDataToBuff
 839              	.LVL93:
 744:Generated_Source\PSoC4/LCD.c **** }
 840              		.loc 1 744 0
 841 0030 FFF7FEFF 		bl	LCD_SendSequence
 842              	.LVL94:
 745:Generated_Source\PSoC4/LCD.c **** 
 843              		.loc 1 745 0
 844              		@ sp needed
 845 0034 F8BD     		pop	{r3, r4, r5, r6, r7, pc}
 846              	.L59:
 847 0036 C046     		.align	2
 848              	.L58:
 849 0038 00000000 		.word	.LANCHOR1
 850              		.cfi_endproc
 851              	.LFE15:
 852              		.size	LCD_PrintInt8, .-LCD_PrintInt8
 853              		.section	.text.LCD_PrintInt16,"ax",%progbits
 854              		.align	2
 855              		.global	LCD_PrintInt16
 856              		.code	16
 857              		.thumb_func
 858              		.type	LCD_PrintInt16, %function
 859              	LCD_PrintInt16:
 860              	.LFB16:
 766:Generated_Source\PSoC4/LCD.c ****     LCD_PrintInt8((uint8)(value >> LCD_U16_UPPER_BYTE_SHIFT));
 861              		.loc 1 766 0
 862              		.cfi_startproc
 863              		@ args = 0, pretend = 0, frame = 0
 864              		@ frame_needed = 0, uses_anonymous_args = 0
 865              	.LVL95:
 866 0000 10B5     		push	{r4, lr}
 867              		.cfi_def_cfa_offset 8
 868              		.cfi_offset 4, -8
 869              		.cfi_offset 14, -4
ARM GAS  C:\Users\Kyle\AppData\Local\Temp\cc3JtO6L.s 			page 38


 870 0002 0400     		movs	r4, r0
 767:Generated_Source\PSoC4/LCD.c ****     LCD_PrintInt8((uint8)(value & LCD_U16_LOWER_BYTE_MASK));
 871              		.loc 1 767 0
 872 0004 000A     		lsrs	r0, r0, #8
 873              	.LVL96:
 874 0006 FFF7FEFF 		bl	LCD_PrintInt8
 875              	.LVL97:
 768:Generated_Source\PSoC4/LCD.c **** }
 876              		.loc 1 768 0
 877 000a E0B2     		uxtb	r0, r4
 878 000c FFF7FEFF 		bl	LCD_PrintInt8
 879              	.LVL98:
 769:Generated_Source\PSoC4/LCD.c **** 
 880              		.loc 1 769 0
 881              		@ sp needed
 882 0010 10BD     		pop	{r4, pc}
 883              		.cfi_endproc
 884              	.LFE16:
 885              		.size	LCD_PrintInt16, .-LCD_PrintInt16
 886              		.global	__aeabi_uidivmod
 887              		.global	__aeabi_uidiv
 888 0012 C046     		.section	.text.LCD_PrintNumber,"ax",%progbits
 889              		.align	2
 890              		.global	LCD_PrintNumber
 891              		.code	16
 892              		.thumb_func
 893              		.type	LCD_PrintNumber, %function
 894              	LCD_PrintNumber:
 895              	.LFB17:
 790:Generated_Source\PSoC4/LCD.c ****     char8 number[LCD_NUMBER_OF_REMAINDERS];
 896              		.loc 1 790 0
 897              		.cfi_startproc
 898              		@ args = 0, pretend = 0, frame = 16
 899              		@ frame_needed = 0, uses_anonymous_args = 0
 900              	.LVL99:
 901 0000 70B5     		push	{r4, r5, r6, lr}
 902              		.cfi_def_cfa_offset 16
 903              		.cfi_offset 4, -16
 904              		.cfi_offset 5, -12
 905              		.cfi_offset 6, -8
 906              		.cfi_offset 14, -4
 907 0002 84B0     		sub	sp, sp, #16
 908              		.cfi_def_cfa_offset 32
 909 0004 0400     		movs	r4, r0
 910              	.LVL100:
 794:Generated_Source\PSoC4/LCD.c ****     uint8 numDigits;
 911              		.loc 1 794 0
 912 0006 0025     		movs	r5, #0
 798:Generated_Source\PSoC4/LCD.c ****     {
 913              		.loc 1 798 0
 914 0008 0DE0     		b	.L62
 915              	.LVL101:
 916              	.L63:
 800:Generated_Source\PSoC4/LCD.c ****         value /= LCD_TEN;
 917              		.loc 1 800 0
 918 000a 0A21     		movs	r1, #10
 919 000c 2000     		movs	r0, r4
ARM GAS  C:\Users\Kyle\AppData\Local\Temp\cc3JtO6L.s 			page 39


 920 000e FFF7FEFF 		bl	__aeabi_uidivmod
 921              	.LVL102:
 922 0012 3031     		adds	r1, r1, #48
 923 0014 6B46     		mov	r3, sp
 924 0016 5955     		strb	r1, [r3, r5]
 801:Generated_Source\PSoC4/LCD.c ****         digIndex++;
 925              		.loc 1 801 0
 926 0018 0A21     		movs	r1, #10
 927 001a 2000     		movs	r0, r4
 928 001c FFF7FEFF 		bl	__aeabi_uidiv
 929              	.LVL103:
 930 0020 84B2     		uxth	r4, r0
 931              	.LVL104:
 802:Generated_Source\PSoC4/LCD.c ****     }
 932              		.loc 1 802 0
 933 0022 0135     		adds	r5, r5, #1
 934              	.LVL105:
 935 0024 EDB2     		uxtb	r5, r5
 936              	.LVL106:
 937              	.L62:
 798:Generated_Source\PSoC4/LCD.c ****     {
 938              		.loc 1 798 0
 939 0026 092C     		cmp	r4, #9
 940 0028 EFD8     		bhi	.L63
 805:Generated_Source\PSoC4/LCD.c ****     numDigits = digIndex;
 941              		.loc 1 805 0
 942 002a 2E00     		movs	r6, r5
 943 002c 0A21     		movs	r1, #10
 944 002e 2000     		movs	r0, r4
 945 0030 FFF7FEFF 		bl	__aeabi_uidivmod
 946              	.LVL107:
 947 0034 3031     		adds	r1, r1, #48
 948 0036 6B46     		mov	r3, sp
 949 0038 5955     		strb	r1, [r3, r5]
 950              	.LVL108:
 811:Generated_Source\PSoC4/LCD.c ****     {
 951              		.loc 1 811 0
 952 003a 2B00     		movs	r3, r5
 953 003c 06E0     		b	.L64
 954              	.LVL109:
 955              	.L65:
 813:Generated_Source\PSoC4/LCD.c ****         digIndex--;
 956              		.loc 1 813 0
 957 003e F21A     		subs	r2, r6, r3
 958 0040 6946     		mov	r1, sp
 959 0042 C85C     		ldrb	r0, [r1, r3]
 960 0044 02A9     		add	r1, sp, #8
 961 0046 8854     		strb	r0, [r1, r2]
 814:Generated_Source\PSoC4/LCD.c ****     }
 962              		.loc 1 814 0
 963 0048 013B     		subs	r3, r3, #1
 964              	.LVL110:
 965 004a DBB2     		uxtb	r3, r3
 966              	.LVL111:
 967              	.L64:
 811:Generated_Source\PSoC4/LCD.c ****     {
 968              		.loc 1 811 0
ARM GAS  C:\Users\Kyle\AppData\Local\Temp\cc3JtO6L.s 			page 40


 969 004c 002B     		cmp	r3, #0
 970 004e F6D1     		bne	.L65
 818:Generated_Source\PSoC4/LCD.c **** 
 971              		.loc 1 818 0
 972 0050 6B46     		mov	r3, sp
 973              	.LVL112:
 974 0052 1B78     		ldrb	r3, [r3]
 975 0054 02A8     		add	r0, sp, #8
 976 0056 8355     		strb	r3, [r0, r6]
 821:Generated_Source\PSoC4/LCD.c **** 
 977              		.loc 1 821 0
 978 0058 0135     		adds	r5, r5, #1
 979              	.LVL113:
 980 005a 0023     		movs	r3, #0
 981 005c 4355     		strb	r3, [r0, r5]
 824:Generated_Source\PSoC4/LCD.c **** }
 982              		.loc 1 824 0
 983 005e FFF7FEFF 		bl	LCD_PrintString
 984              	.LVL114:
 825:Generated_Source\PSoC4/LCD.c **** 
 985              		.loc 1 825 0
 986 0062 04B0     		add	sp, sp, #16
 987              		@ sp needed
 988              	.LVL115:
 989 0064 70BD     		pop	{r4, r5, r6, pc}
 990              		.cfi_endproc
 991              	.LFE17:
 992              		.size	LCD_PrintNumber, .-LCD_PrintNumber
 993 0066 C046     		.section	.text.LCD_SetAddr,"ax",%progbits
 994              		.align	2
 995              		.global	LCD_SetAddr
 996              		.code	16
 997              		.thumb_func
 998              		.type	LCD_SetAddr, %function
 999              	LCD_SetAddr:
 1000              	.LFB18:
 851:Generated_Source\PSoC4/LCD.c ****     #if(LCD_IS_SCB_MASTER_USED)
 1001              		.loc 1 851 0
 1002              		.cfi_startproc
 1003              		@ args = 0, pretend = 0, frame = 0
 1004              		@ frame_needed = 0, uses_anonymous_args = 0
 1005              		@ link register save eliminated.
 1006              	.LVL116:
 853:Generated_Source\PSoC4/LCD.c ****     #else
 1007              		.loc 1 853 0
 1008 0000 4008     		lsrs	r0, r0, #1
 1009              	.LVL117:
 1010 0002 014B     		ldr	r3, .L67
 1011 0004 1860     		str	r0, [r3]
 857:Generated_Source\PSoC4/LCD.c **** 
 1012              		.loc 1 857 0
 1013              		@ sp needed
 1014 0006 7047     		bx	lr
 1015              	.L68:
 1016              		.align	2
 1017              	.L67:
 1018 0008 00000000 		.word	.LANCHOR2
ARM GAS  C:\Users\Kyle\AppData\Local\Temp\cc3JtO6L.s 			page 41


 1019              		.cfi_endproc
 1020              	.LFE18:
 1021              		.size	LCD_SetAddr, .-LCD_SetAddr
 1022              		.global	LCD_initVar
 1023              		.section	.rodata
 1024              		.align	2
 1025              		.set	.LANCHOR1,. + 0
 1026              		.type	LCD_cmdPatt, %object
 1027              		.size	LCD_cmdPatt, 48
 1028              	LCD_cmdPatt:
 1029 0000 01       		.byte	1
 1030 0001 40       		.byte	64
 1031 0002 00       		.byte	0
 1032 0003 02       		.byte	2
 1033 0004 00       		.byte	0
 1034 0005 0C       		.byte	12
 1035 0006 02       		.byte	2
 1036 0007 00       		.byte	0
 1037 0008 08       		.byte	8
 1038 0009 01       		.byte	1
 1039 000a 00       		.byte	0
 1040 000b 80       		.byte	-128
 1041 000c 02       		.byte	2
 1042 000d 00       		.byte	0
 1043 000e 02       		.byte	2
 1044 000f 02       		.byte	2
 1045 0010 00       		.byte	0
 1046 0011 03       		.byte	3
 1047 0012 02       		.byte	2
 1048 0013 00       		.byte	0
 1049 0014 10       		.byte	16
 1050 0015 02       		.byte	2
 1051 0016 00       		.byte	0
 1052 0017 14       		.byte	20
 1053 0018 02       		.byte	2
 1054 0019 00       		.byte	0
 1055 001a 0E       		.byte	14
 1056 001b 02       		.byte	2
 1057 001c 00       		.byte	0
 1058 001d 0D       		.byte	13
 1059 001e 02       		.byte	2
 1060 001f 00       		.byte	0
 1061 0020 0F       		.byte	15
 1062 0021 02       		.byte	2
 1063 0022 00       		.byte	0
 1064 0023 01       		.byte	1
 1065 0024 02       		.byte	2
 1066 0025 00       		.byte	0
 1067 0026 40       		.byte	64
 1068 0027 02       		.byte	2
 1069 0028 00       		.byte	0
 1070 0029 24       		.byte	36
 1071 002a 02       		.byte	2
 1072 002b 00       		.byte	0
 1073 002c 06       		.byte	6
 1074 002d 02       		.byte	2
 1075 002e 00       		.byte	0
ARM GAS  C:\Users\Kyle\AppData\Local\Temp\cc3JtO6L.s 			page 42


 1076 002f 04       		.byte	4
 1077              		.type	LCD_hex.5107, %object
 1078              		.size	LCD_hex.5107, 16
 1079              	LCD_hex.5107:
 1080 0030 30313233 		.ascii	"0123456789ABCDEF"
 1080      34353637 
 1080      38394142 
 1080      43444546 
 1081              		.data
 1082              		.align	2
 1083              		.set	.LANCHOR2,. + 0
 1084              		.type	LCD_address, %object
 1085              		.size	LCD_address, 4
 1086              	LCD_address:
 1087 0000 0D000000 		.word	13
 1088              		.bss
 1089              		.align	2
 1090              		.set	.LANCHOR0,. + 0
 1091              		.set	.LANCHOR3,. + 256
 1092              		.type	LCD_buffIndex, %object
 1093              		.size	LCD_buffIndex, 4
 1094              	LCD_buffIndex:
 1095 0000 00000000 		.space	4
 1096              		.type	LCD_buff, %object
 1097              		.size	LCD_buff, 256
 1098              	LCD_buff:
 1099 0004 00000000 		.space	256
 1099      00000000 
 1099      00000000 
 1099      00000000 
 1099      00000000 
 1100              		.type	LCD_initVar, %object
 1101              		.size	LCD_initVar, 1
 1102              	LCD_initVar:
 1103 0104 00       		.space	1
 1104              		.text
 1105              	.Letext0:
 1106              		.file 2 "Generated_Source\\PSoC4\\cytypes.h"
 1107              		.file 3 "Generated_Source\\PSoC4\\I2C_I2C.h"
 1108              		.file 4 "Generated_Source\\PSoC4/CyLib.h"