ARM GAS  C:\Users\Kyle\AppData\Local\Temp\ccKSi1be.s 			page 1


   1              		.syntax unified
   2              		.cpu cortex-m0
   3              		.fpu softvfp
   4              		.eabi_attribute 20, 1
   5              		.eabi_attribute 21, 1
   6              		.eabi_attribute 23, 3
   7              		.eabi_attribute 24, 1
   8              		.eabi_attribute 25, 1
   9              		.eabi_attribute 26, 1
  10              		.eabi_attribute 30, 1
  11              		.eabi_attribute 34, 0
  12              		.eabi_attribute 18, 4
  13              		.thumb
  14              		.syntax unified
  15              		.file	"UART_UART.c"
  16              		.text
  17              	.Ltext0:
  18              		.cfi_sections	.debug_frame
  19              		.section	.text.UART_UartInit,"ax",%progbits
  20              		.align	2
  21              		.global	UART_UartInit
  22              		.code	16
  23              		.thumb_func
  24              		.type	UART_UartInit, %function
  25              	UART_UartInit:
  26              	.LFB1:
  27              		.file 1 "Generated_Source\\PSoC4\\UART_UART.c"
   1:Generated_Source\PSoC4/UART_UART.c **** /***************************************************************************//**
   2:Generated_Source\PSoC4/UART_UART.c **** * \file UART_UART.c
   3:Generated_Source\PSoC4/UART_UART.c **** * \version 3.20
   4:Generated_Source\PSoC4/UART_UART.c **** *
   5:Generated_Source\PSoC4/UART_UART.c **** * \brief
   6:Generated_Source\PSoC4/UART_UART.c **** *  This file provides the source code to the API for the SCB Component in
   7:Generated_Source\PSoC4/UART_UART.c **** *  UART mode.
   8:Generated_Source\PSoC4/UART_UART.c **** *
   9:Generated_Source\PSoC4/UART_UART.c **** * Note:
  10:Generated_Source\PSoC4/UART_UART.c **** *
  11:Generated_Source\PSoC4/UART_UART.c **** *******************************************************************************
  12:Generated_Source\PSoC4/UART_UART.c **** * \copyright
  13:Generated_Source\PSoC4/UART_UART.c **** * Copyright 2013-2016, Cypress Semiconductor Corporation.  All rights reserved.
  14:Generated_Source\PSoC4/UART_UART.c **** * You may use this file only in accordance with the license, terms, conditions,
  15:Generated_Source\PSoC4/UART_UART.c **** * disclaimers, and limitations in the end user license agreement accompanying
  16:Generated_Source\PSoC4/UART_UART.c **** * the software package with which this file was provided.
  17:Generated_Source\PSoC4/UART_UART.c **** *******************************************************************************/
  18:Generated_Source\PSoC4/UART_UART.c **** 
  19:Generated_Source\PSoC4/UART_UART.c **** #include "UART_PVT.h"
  20:Generated_Source\PSoC4/UART_UART.c **** #include "UART_SPI_UART_PVT.h"
  21:Generated_Source\PSoC4/UART_UART.c **** #include "cyapicallbacks.h"
  22:Generated_Source\PSoC4/UART_UART.c **** 
  23:Generated_Source\PSoC4/UART_UART.c **** #if (UART_UART_WAKE_ENABLE_CONST && UART_UART_RX_WAKEUP_IRQ)
  24:Generated_Source\PSoC4/UART_UART.c ****     /**
  25:Generated_Source\PSoC4/UART_UART.c ****     * \addtogroup group_globals
  26:Generated_Source\PSoC4/UART_UART.c ****     * \{
  27:Generated_Source\PSoC4/UART_UART.c ****     */
  28:Generated_Source\PSoC4/UART_UART.c ****     /** This global variable determines whether to enable Skip Start
  29:Generated_Source\PSoC4/UART_UART.c ****     * functionality when UART_Sleep() function is called:
  30:Generated_Source\PSoC4/UART_UART.c ****     * 0 – disable, other values – enable. Default value is 1.
ARM GAS  C:\Users\Kyle\AppData\Local\Temp\ccKSi1be.s 			page 2


  31:Generated_Source\PSoC4/UART_UART.c ****     * It is only available when Enable wakeup from Deep Sleep Mode is enabled.
  32:Generated_Source\PSoC4/UART_UART.c ****     */
  33:Generated_Source\PSoC4/UART_UART.c ****     uint8 UART_skipStart = 1u;
  34:Generated_Source\PSoC4/UART_UART.c ****     /** \} globals */
  35:Generated_Source\PSoC4/UART_UART.c **** #endif /* (UART_UART_WAKE_ENABLE_CONST && UART_UART_RX_WAKEUP_IRQ) */
  36:Generated_Source\PSoC4/UART_UART.c **** 
  37:Generated_Source\PSoC4/UART_UART.c **** #if(UART_SCB_MODE_UNCONFIG_CONST_CFG)
  38:Generated_Source\PSoC4/UART_UART.c **** 
  39:Generated_Source\PSoC4/UART_UART.c ****     /***************************************
  40:Generated_Source\PSoC4/UART_UART.c ****     *  Configuration Structure Initialization
  41:Generated_Source\PSoC4/UART_UART.c ****     ***************************************/
  42:Generated_Source\PSoC4/UART_UART.c **** 
  43:Generated_Source\PSoC4/UART_UART.c ****     const UART_UART_INIT_STRUCT UART_configUart =
  44:Generated_Source\PSoC4/UART_UART.c ****     {
  45:Generated_Source\PSoC4/UART_UART.c ****         UART_UART_SUB_MODE,
  46:Generated_Source\PSoC4/UART_UART.c ****         UART_UART_DIRECTION,
  47:Generated_Source\PSoC4/UART_UART.c ****         UART_UART_DATA_BITS_NUM,
  48:Generated_Source\PSoC4/UART_UART.c ****         UART_UART_PARITY_TYPE,
  49:Generated_Source\PSoC4/UART_UART.c ****         UART_UART_STOP_BITS_NUM,
  50:Generated_Source\PSoC4/UART_UART.c ****         UART_UART_OVS_FACTOR,
  51:Generated_Source\PSoC4/UART_UART.c ****         UART_UART_IRDA_LOW_POWER,
  52:Generated_Source\PSoC4/UART_UART.c ****         UART_UART_MEDIAN_FILTER_ENABLE,
  53:Generated_Source\PSoC4/UART_UART.c ****         UART_UART_RETRY_ON_NACK,
  54:Generated_Source\PSoC4/UART_UART.c ****         UART_UART_IRDA_POLARITY,
  55:Generated_Source\PSoC4/UART_UART.c ****         UART_UART_DROP_ON_PARITY_ERR,
  56:Generated_Source\PSoC4/UART_UART.c ****         UART_UART_DROP_ON_FRAME_ERR,
  57:Generated_Source\PSoC4/UART_UART.c ****         UART_UART_WAKE_ENABLE,
  58:Generated_Source\PSoC4/UART_UART.c ****         0u,
  59:Generated_Source\PSoC4/UART_UART.c ****         NULL,
  60:Generated_Source\PSoC4/UART_UART.c ****         0u,
  61:Generated_Source\PSoC4/UART_UART.c ****         NULL,
  62:Generated_Source\PSoC4/UART_UART.c ****         UART_UART_MP_MODE_ENABLE,
  63:Generated_Source\PSoC4/UART_UART.c ****         UART_UART_MP_ACCEPT_ADDRESS,
  64:Generated_Source\PSoC4/UART_UART.c ****         UART_UART_MP_RX_ADDRESS,
  65:Generated_Source\PSoC4/UART_UART.c ****         UART_UART_MP_RX_ADDRESS_MASK,
  66:Generated_Source\PSoC4/UART_UART.c ****         (uint32) UART_SCB_IRQ_INTERNAL,
  67:Generated_Source\PSoC4/UART_UART.c ****         UART_UART_INTR_RX_MASK,
  68:Generated_Source\PSoC4/UART_UART.c ****         UART_UART_RX_TRIGGER_LEVEL,
  69:Generated_Source\PSoC4/UART_UART.c ****         UART_UART_INTR_TX_MASK,
  70:Generated_Source\PSoC4/UART_UART.c ****         UART_UART_TX_TRIGGER_LEVEL,
  71:Generated_Source\PSoC4/UART_UART.c ****         (uint8) UART_UART_BYTE_MODE_ENABLE,
  72:Generated_Source\PSoC4/UART_UART.c ****         (uint8) UART_UART_CTS_ENABLE,
  73:Generated_Source\PSoC4/UART_UART.c ****         (uint8) UART_UART_CTS_POLARITY,
  74:Generated_Source\PSoC4/UART_UART.c ****         (uint8) UART_UART_RTS_POLARITY,
  75:Generated_Source\PSoC4/UART_UART.c ****         (uint8) UART_UART_RTS_FIFO_LEVEL
  76:Generated_Source\PSoC4/UART_UART.c ****     };
  77:Generated_Source\PSoC4/UART_UART.c **** 
  78:Generated_Source\PSoC4/UART_UART.c **** 
  79:Generated_Source\PSoC4/UART_UART.c ****     /*******************************************************************************
  80:Generated_Source\PSoC4/UART_UART.c ****     * Function Name: UART_UartInit
  81:Generated_Source\PSoC4/UART_UART.c ****     ****************************************************************************//**
  82:Generated_Source\PSoC4/UART_UART.c ****     *
  83:Generated_Source\PSoC4/UART_UART.c ****     *  Configures the UART for UART operation.
  84:Generated_Source\PSoC4/UART_UART.c ****     *
  85:Generated_Source\PSoC4/UART_UART.c ****     *  This function is intended specifically to be used when the UART
  86:Generated_Source\PSoC4/UART_UART.c ****     *  configuration is set to “Unconfigured UART” in the customizer.
  87:Generated_Source\PSoC4/UART_UART.c ****     *  After initializing the UART in UART mode using this function,
ARM GAS  C:\Users\Kyle\AppData\Local\Temp\ccKSi1be.s 			page 3


  88:Generated_Source\PSoC4/UART_UART.c ****     *  the component can be enabled using the UART_Start() or
  89:Generated_Source\PSoC4/UART_UART.c ****     * UART_Enable() function.
  90:Generated_Source\PSoC4/UART_UART.c ****     *  This function uses a pointer to a structure that provides the configuration
  91:Generated_Source\PSoC4/UART_UART.c ****     *  settings. This structure contains the same information that would otherwise
  92:Generated_Source\PSoC4/UART_UART.c ****     *  be provided by the customizer settings.
  93:Generated_Source\PSoC4/UART_UART.c ****     *
  94:Generated_Source\PSoC4/UART_UART.c ****     *  \param config: pointer to a structure that contains the following list of
  95:Generated_Source\PSoC4/UART_UART.c ****     *   fields. These fields match the selections available in the customizer.
  96:Generated_Source\PSoC4/UART_UART.c ****     *   Refer to the customizer for further description of the settings.
  97:Generated_Source\PSoC4/UART_UART.c ****     *
  98:Generated_Source\PSoC4/UART_UART.c ****     *******************************************************************************/
  99:Generated_Source\PSoC4/UART_UART.c ****     void UART_UartInit(const UART_UART_INIT_STRUCT *config)
 100:Generated_Source\PSoC4/UART_UART.c ****     {
 101:Generated_Source\PSoC4/UART_UART.c ****         uint32 pinsConfig;
 102:Generated_Source\PSoC4/UART_UART.c **** 
 103:Generated_Source\PSoC4/UART_UART.c ****         if (NULL == config)
 104:Generated_Source\PSoC4/UART_UART.c ****         {
 105:Generated_Source\PSoC4/UART_UART.c ****             CYASSERT(0u != 0u); /* Halt execution due to bad function parameter */
 106:Generated_Source\PSoC4/UART_UART.c ****         }
 107:Generated_Source\PSoC4/UART_UART.c ****         else
 108:Generated_Source\PSoC4/UART_UART.c ****         {
 109:Generated_Source\PSoC4/UART_UART.c ****             /* Get direction to configure UART pins: TX, RX or TX+RX */
 110:Generated_Source\PSoC4/UART_UART.c ****             pinsConfig  = config->direction;
 111:Generated_Source\PSoC4/UART_UART.c **** 
 112:Generated_Source\PSoC4/UART_UART.c ****         #if !(UART_CY_SCBIP_V0 || UART_CY_SCBIP_V1)
 113:Generated_Source\PSoC4/UART_UART.c ****             /* Add RTS and CTS pins to configure */
 114:Generated_Source\PSoC4/UART_UART.c ****             pinsConfig |= (0u != config->rtsRxFifoLevel) ? (UART_UART_RTS_PIN_ENABLE) : (0u);
 115:Generated_Source\PSoC4/UART_UART.c ****             pinsConfig |= (0u != config->enableCts)      ? (UART_UART_CTS_PIN_ENABLE) : (0u);
 116:Generated_Source\PSoC4/UART_UART.c ****         #endif /* !(UART_CY_SCBIP_V0 || UART_CY_SCBIP_V1) */
 117:Generated_Source\PSoC4/UART_UART.c **** 
 118:Generated_Source\PSoC4/UART_UART.c ****             /* Configure pins */
 119:Generated_Source\PSoC4/UART_UART.c ****             UART_SetPins(UART_SCB_MODE_UART, config->mode, pinsConfig);
 120:Generated_Source\PSoC4/UART_UART.c **** 
 121:Generated_Source\PSoC4/UART_UART.c ****             /* Store internal configuration */
 122:Generated_Source\PSoC4/UART_UART.c ****             UART_scbMode       = (uint8) UART_SCB_MODE_UART;
 123:Generated_Source\PSoC4/UART_UART.c ****             UART_scbEnableWake = (uint8) config->enableWake;
 124:Generated_Source\PSoC4/UART_UART.c ****             UART_scbEnableIntr = (uint8) config->enableInterrupt;
 125:Generated_Source\PSoC4/UART_UART.c **** 
 126:Generated_Source\PSoC4/UART_UART.c ****             /* Set RX direction internal variables */
 127:Generated_Source\PSoC4/UART_UART.c ****             UART_rxBuffer      =         config->rxBuffer;
 128:Generated_Source\PSoC4/UART_UART.c ****             UART_rxDataBits    = (uint8) config->dataBits;
 129:Generated_Source\PSoC4/UART_UART.c ****             UART_rxBufferSize  = (uint8) config->rxBufferSize;
 130:Generated_Source\PSoC4/UART_UART.c **** 
 131:Generated_Source\PSoC4/UART_UART.c ****             /* Set TX direction internal variables */
 132:Generated_Source\PSoC4/UART_UART.c ****             UART_txBuffer      =         config->txBuffer;
 133:Generated_Source\PSoC4/UART_UART.c ****             UART_txDataBits    = (uint8) config->dataBits;
 134:Generated_Source\PSoC4/UART_UART.c ****             UART_txBufferSize  = (uint8) config->txBufferSize;
 135:Generated_Source\PSoC4/UART_UART.c **** 
 136:Generated_Source\PSoC4/UART_UART.c ****             /* Configure UART interface */
 137:Generated_Source\PSoC4/UART_UART.c ****             if(UART_UART_MODE_IRDA == config->mode)
 138:Generated_Source\PSoC4/UART_UART.c ****             {
 139:Generated_Source\PSoC4/UART_UART.c ****                 /* OVS settings: IrDA */
 140:Generated_Source\PSoC4/UART_UART.c ****                 UART_CTRL_REG  = ((0u != config->enableIrdaLowPower) ?
 141:Generated_Source\PSoC4/UART_UART.c ****                                                 (UART_UART_GET_CTRL_OVS_IRDA_LP(config->oversample)
 142:Generated_Source\PSoC4/UART_UART.c ****                                                 (UART_CTRL_OVS_IRDA_OVS16));
 143:Generated_Source\PSoC4/UART_UART.c ****             }
 144:Generated_Source\PSoC4/UART_UART.c ****             else
ARM GAS  C:\Users\Kyle\AppData\Local\Temp\ccKSi1be.s 			page 4


 145:Generated_Source\PSoC4/UART_UART.c ****             {
 146:Generated_Source\PSoC4/UART_UART.c ****                 /* OVS settings: UART and SmartCard */
 147:Generated_Source\PSoC4/UART_UART.c ****                 UART_CTRL_REG  = UART_GET_CTRL_OVS(config->oversample);
 148:Generated_Source\PSoC4/UART_UART.c ****             }
 149:Generated_Source\PSoC4/UART_UART.c **** 
 150:Generated_Source\PSoC4/UART_UART.c ****             UART_CTRL_REG     |= UART_GET_CTRL_BYTE_MODE  (config->enableByteMode)      |
 151:Generated_Source\PSoC4/UART_UART.c ****                                              UART_GET_CTRL_ADDR_ACCEPT(config->multiprocAcceptAddr)
 152:Generated_Source\PSoC4/UART_UART.c ****                                              UART_CTRL_UART;
 153:Generated_Source\PSoC4/UART_UART.c **** 
 154:Generated_Source\PSoC4/UART_UART.c ****             /* Configure sub-mode: UART, SmartCard or IrDA */
 155:Generated_Source\PSoC4/UART_UART.c ****             UART_UART_CTRL_REG = UART_GET_UART_CTRL_MODE(config->mode);
 156:Generated_Source\PSoC4/UART_UART.c **** 
 157:Generated_Source\PSoC4/UART_UART.c ****             /* Configure RX direction */
 158:Generated_Source\PSoC4/UART_UART.c ****             UART_UART_RX_CTRL_REG = UART_GET_UART_RX_CTRL_MODE(config->stopBits)              |
 159:Generated_Source\PSoC4/UART_UART.c ****                                         UART_GET_UART_RX_CTRL_POLARITY(config->enableInvertedRx)   
 160:Generated_Source\PSoC4/UART_UART.c ****                                         UART_GET_UART_RX_CTRL_MP_MODE(config->enableMultiproc)     
 161:Generated_Source\PSoC4/UART_UART.c ****                                         UART_GET_UART_RX_CTRL_DROP_ON_PARITY_ERR(config->dropOnPari
 162:Generated_Source\PSoC4/UART_UART.c ****                                         UART_GET_UART_RX_CTRL_DROP_ON_FRAME_ERR(config->dropOnFrame
 163:Generated_Source\PSoC4/UART_UART.c **** 
 164:Generated_Source\PSoC4/UART_UART.c ****             if(UART_UART_PARITY_NONE != config->parity)
 165:Generated_Source\PSoC4/UART_UART.c ****             {
 166:Generated_Source\PSoC4/UART_UART.c ****                UART_UART_RX_CTRL_REG |= UART_GET_UART_RX_CTRL_PARITY(config->parity) |
 167:Generated_Source\PSoC4/UART_UART.c ****                                                     UART_UART_RX_CTRL_PARITY_ENABLED;
 168:Generated_Source\PSoC4/UART_UART.c ****             }
 169:Generated_Source\PSoC4/UART_UART.c **** 
 170:Generated_Source\PSoC4/UART_UART.c ****             UART_RX_CTRL_REG      = UART_GET_RX_CTRL_DATA_WIDTH(config->dataBits)       |
 171:Generated_Source\PSoC4/UART_UART.c ****                                                 UART_GET_RX_CTRL_MEDIAN(config->enableMedianFilter)
 172:Generated_Source\PSoC4/UART_UART.c ****                                                 UART_GET_UART_RX_CTRL_ENABLED(config->direction);
 173:Generated_Source\PSoC4/UART_UART.c **** 
 174:Generated_Source\PSoC4/UART_UART.c ****             UART_RX_FIFO_CTRL_REG = UART_GET_RX_FIFO_CTRL_TRIGGER_LEVEL(config->rxTriggerLevel);
 175:Generated_Source\PSoC4/UART_UART.c **** 
 176:Generated_Source\PSoC4/UART_UART.c ****             /* Configure MP address */
 177:Generated_Source\PSoC4/UART_UART.c ****             UART_RX_MATCH_REG     = UART_GET_RX_MATCH_ADDR(config->multiprocAddr) |
 178:Generated_Source\PSoC4/UART_UART.c ****                                                 UART_GET_RX_MATCH_MASK(config->multiprocAddrMask);
 179:Generated_Source\PSoC4/UART_UART.c **** 
 180:Generated_Source\PSoC4/UART_UART.c ****             /* Configure RX direction */
 181:Generated_Source\PSoC4/UART_UART.c ****             UART_UART_TX_CTRL_REG = UART_GET_UART_TX_CTRL_MODE(config->stopBits) |
 182:Generated_Source\PSoC4/UART_UART.c ****                                                 UART_GET_UART_TX_CTRL_RETRY_NACK(config->enableRetr
 183:Generated_Source\PSoC4/UART_UART.c **** 
 184:Generated_Source\PSoC4/UART_UART.c ****             if(UART_UART_PARITY_NONE != config->parity)
 185:Generated_Source\PSoC4/UART_UART.c ****             {
 186:Generated_Source\PSoC4/UART_UART.c ****                UART_UART_TX_CTRL_REG |= UART_GET_UART_TX_CTRL_PARITY(config->parity) |
 187:Generated_Source\PSoC4/UART_UART.c ****                                                     UART_UART_TX_CTRL_PARITY_ENABLED;
 188:Generated_Source\PSoC4/UART_UART.c ****             }
 189:Generated_Source\PSoC4/UART_UART.c **** 
 190:Generated_Source\PSoC4/UART_UART.c ****             UART_TX_CTRL_REG      = UART_GET_TX_CTRL_DATA_WIDTH(config->dataBits)    |
 191:Generated_Source\PSoC4/UART_UART.c ****                                                 UART_GET_UART_TX_CTRL_ENABLED(config->direction);
 192:Generated_Source\PSoC4/UART_UART.c **** 
 193:Generated_Source\PSoC4/UART_UART.c ****             UART_TX_FIFO_CTRL_REG = UART_GET_TX_FIFO_CTRL_TRIGGER_LEVEL(config->txTriggerLevel);
 194:Generated_Source\PSoC4/UART_UART.c **** 
 195:Generated_Source\PSoC4/UART_UART.c ****         #if !(UART_CY_SCBIP_V0 || UART_CY_SCBIP_V1)
 196:Generated_Source\PSoC4/UART_UART.c ****             UART_UART_FLOW_CTRL_REG = UART_GET_UART_FLOW_CTRL_CTS_ENABLE(config->enableCts) | \
 197:Generated_Source\PSoC4/UART_UART.c ****                                             UART_GET_UART_FLOW_CTRL_CTS_POLARITY (config->ctsPolari
 198:Generated_Source\PSoC4/UART_UART.c ****                                             UART_GET_UART_FLOW_CTRL_RTS_POLARITY (config->rtsPolari
 199:Generated_Source\PSoC4/UART_UART.c ****                                             UART_GET_UART_FLOW_CTRL_TRIGGER_LEVEL(config->rtsRxFifo
 200:Generated_Source\PSoC4/UART_UART.c ****         #endif /* !(UART_CY_SCBIP_V0 || UART_CY_SCBIP_V1) */
 201:Generated_Source\PSoC4/UART_UART.c **** 
ARM GAS  C:\Users\Kyle\AppData\Local\Temp\ccKSi1be.s 			page 5


 202:Generated_Source\PSoC4/UART_UART.c ****             /* Configure interrupt with UART handler but do not enable it */
 203:Generated_Source\PSoC4/UART_UART.c ****             CyIntDisable    (UART_ISR_NUMBER);
 204:Generated_Source\PSoC4/UART_UART.c ****             CyIntSetPriority(UART_ISR_NUMBER, UART_ISR_PRIORITY);
 205:Generated_Source\PSoC4/UART_UART.c ****             (void) CyIntSetVector(UART_ISR_NUMBER, &UART_SPI_UART_ISR);
 206:Generated_Source\PSoC4/UART_UART.c **** 
 207:Generated_Source\PSoC4/UART_UART.c ****             /* Configure WAKE interrupt */
 208:Generated_Source\PSoC4/UART_UART.c ****         #if(UART_UART_RX_WAKEUP_IRQ)
 209:Generated_Source\PSoC4/UART_UART.c ****             CyIntDisable    (UART_RX_WAKE_ISR_NUMBER);
 210:Generated_Source\PSoC4/UART_UART.c ****             CyIntSetPriority(UART_RX_WAKE_ISR_NUMBER, UART_RX_WAKE_ISR_PRIORITY);
 211:Generated_Source\PSoC4/UART_UART.c ****             (void) CyIntSetVector(UART_RX_WAKE_ISR_NUMBER, &UART_UART_WAKEUP_ISR);
 212:Generated_Source\PSoC4/UART_UART.c ****         #endif /* (UART_UART_RX_WAKEUP_IRQ) */
 213:Generated_Source\PSoC4/UART_UART.c **** 
 214:Generated_Source\PSoC4/UART_UART.c ****             /* Configure interrupt sources */
 215:Generated_Source\PSoC4/UART_UART.c ****             UART_INTR_I2C_EC_MASK_REG = UART_NO_INTR_SOURCES;
 216:Generated_Source\PSoC4/UART_UART.c ****             UART_INTR_SPI_EC_MASK_REG = UART_NO_INTR_SOURCES;
 217:Generated_Source\PSoC4/UART_UART.c ****             UART_INTR_SLAVE_MASK_REG  = UART_NO_INTR_SOURCES;
 218:Generated_Source\PSoC4/UART_UART.c ****             UART_INTR_MASTER_MASK_REG = UART_NO_INTR_SOURCES;
 219:Generated_Source\PSoC4/UART_UART.c ****             UART_INTR_RX_MASK_REG     = config->rxInterruptMask;
 220:Generated_Source\PSoC4/UART_UART.c ****             UART_INTR_TX_MASK_REG     = config->txInterruptMask;
 221:Generated_Source\PSoC4/UART_UART.c ****         
 222:Generated_Source\PSoC4/UART_UART.c ****             /* Configure TX interrupt sources to restore. */
 223:Generated_Source\PSoC4/UART_UART.c ****             UART_IntrTxMask = LO16(UART_INTR_TX_MASK_REG);
 224:Generated_Source\PSoC4/UART_UART.c **** 
 225:Generated_Source\PSoC4/UART_UART.c ****             /* Clear RX buffer indexes */
 226:Generated_Source\PSoC4/UART_UART.c ****             UART_rxBufferHead     = 0u;
 227:Generated_Source\PSoC4/UART_UART.c ****             UART_rxBufferTail     = 0u;
 228:Generated_Source\PSoC4/UART_UART.c ****             UART_rxBufferOverflow = 0u;
 229:Generated_Source\PSoC4/UART_UART.c **** 
 230:Generated_Source\PSoC4/UART_UART.c ****             /* Clear TX buffer indexes */
 231:Generated_Source\PSoC4/UART_UART.c ****             UART_txBufferHead = 0u;
 232:Generated_Source\PSoC4/UART_UART.c ****             UART_txBufferTail = 0u;
 233:Generated_Source\PSoC4/UART_UART.c ****         }
 234:Generated_Source\PSoC4/UART_UART.c ****     }
 235:Generated_Source\PSoC4/UART_UART.c **** 
 236:Generated_Source\PSoC4/UART_UART.c **** #else
 237:Generated_Source\PSoC4/UART_UART.c **** 
 238:Generated_Source\PSoC4/UART_UART.c ****     /*******************************************************************************
 239:Generated_Source\PSoC4/UART_UART.c ****     * Function Name: UART_UartInit
 240:Generated_Source\PSoC4/UART_UART.c ****     ****************************************************************************//**
 241:Generated_Source\PSoC4/UART_UART.c ****     *
 242:Generated_Source\PSoC4/UART_UART.c ****     *  Configures the SCB for the UART operation.
 243:Generated_Source\PSoC4/UART_UART.c ****     *
 244:Generated_Source\PSoC4/UART_UART.c ****     *******************************************************************************/
 245:Generated_Source\PSoC4/UART_UART.c ****     void UART_UartInit(void)
 246:Generated_Source\PSoC4/UART_UART.c ****     {
  28              		.loc 1 246 0
  29              		.cfi_startproc
  30              		@ args = 0, pretend = 0, frame = 0
  31              		@ frame_needed = 0, uses_anonymous_args = 0
  32 0000 70B5     		push	{r4, r5, r6, lr}
  33              		.cfi_def_cfa_offset 16
  34              		.cfi_offset 4, -16
  35              		.cfi_offset 5, -12
  36              		.cfi_offset 6, -8
  37              		.cfi_offset 14, -4
 247:Generated_Source\PSoC4/UART_UART.c ****         /* Configure UART interface */
 248:Generated_Source\PSoC4/UART_UART.c ****         UART_CTRL_REG = UART_UART_DEFAULT_CTRL;
ARM GAS  C:\Users\Kyle\AppData\Local\Temp\ccKSi1be.s 			page 6


  38              		.loc 1 248 0
  39 0002 1F4A     		ldr	r2, .L2
  40 0004 1F4B     		ldr	r3, .L2+4
  41 0006 1A60     		str	r2, [r3]
 249:Generated_Source\PSoC4/UART_UART.c **** 
 250:Generated_Source\PSoC4/UART_UART.c ****         /* Configure sub-mode: UART, SmartCard or IrDA */
 251:Generated_Source\PSoC4/UART_UART.c ****         UART_UART_CTRL_REG = UART_UART_DEFAULT_UART_CTRL;
  42              		.loc 1 251 0
  43 0008 0024     		movs	r4, #0
  44 000a 1F4B     		ldr	r3, .L2+8
  45 000c 1C60     		str	r4, [r3]
 252:Generated_Source\PSoC4/UART_UART.c **** 
 253:Generated_Source\PSoC4/UART_UART.c ****         /* Configure RX direction */
 254:Generated_Source\PSoC4/UART_UART.c ****         UART_UART_RX_CTRL_REG = UART_UART_DEFAULT_UART_RX_CTRL;
  46              		.loc 1 254 0
  47 000e 0122     		movs	r2, #1
  48 0010 1E4B     		ldr	r3, .L2+12
  49 0012 1A60     		str	r2, [r3]
 255:Generated_Source\PSoC4/UART_UART.c ****         UART_RX_CTRL_REG      = UART_UART_DEFAULT_RX_CTRL;
  50              		.loc 1 255 0
  51 0014 1E4B     		ldr	r3, .L2+16
  52 0016 1F49     		ldr	r1, .L2+20
  53 0018 0B60     		str	r3, [r1]
 256:Generated_Source\PSoC4/UART_UART.c ****         UART_RX_FIFO_CTRL_REG = UART_UART_DEFAULT_RX_FIFO_CTRL;
  54              		.loc 1 256 0
  55 001a 0720     		movs	r0, #7
  56 001c 1E49     		ldr	r1, .L2+24
  57 001e 0860     		str	r0, [r1]
 257:Generated_Source\PSoC4/UART_UART.c ****         UART_RX_MATCH_REG     = UART_UART_DEFAULT_RX_MATCH_REG;
  58              		.loc 1 257 0
  59 0020 1E49     		ldr	r1, .L2+28
  60 0022 0C60     		str	r4, [r1]
 258:Generated_Source\PSoC4/UART_UART.c **** 
 259:Generated_Source\PSoC4/UART_UART.c ****         /* Configure TX direction */
 260:Generated_Source\PSoC4/UART_UART.c ****         UART_UART_TX_CTRL_REG = UART_UART_DEFAULT_UART_TX_CTRL;
  61              		.loc 1 260 0
  62 0024 1E49     		ldr	r1, .L2+32
  63 0026 0A60     		str	r2, [r1]
 261:Generated_Source\PSoC4/UART_UART.c ****         UART_TX_CTRL_REG      = UART_UART_DEFAULT_TX_CTRL;
  64              		.loc 1 261 0
  65 0028 1E4A     		ldr	r2, .L2+36
  66 002a 1360     		str	r3, [r2]
 262:Generated_Source\PSoC4/UART_UART.c ****         UART_TX_FIFO_CTRL_REG = UART_UART_DEFAULT_TX_FIFO_CTRL;
  67              		.loc 1 262 0
  68 002c 1E4B     		ldr	r3, .L2+40
  69 002e 1C60     		str	r4, [r3]
 263:Generated_Source\PSoC4/UART_UART.c **** 
 264:Generated_Source\PSoC4/UART_UART.c ****     #if !(UART_CY_SCBIP_V0 || UART_CY_SCBIP_V1)
 265:Generated_Source\PSoC4/UART_UART.c ****         UART_UART_FLOW_CTRL_REG = UART_UART_DEFAULT_FLOW_CTRL;
  70              		.loc 1 265 0
  71 0030 0425     		movs	r5, #4
  72 0032 1E4B     		ldr	r3, .L2+44
  73 0034 1D60     		str	r5, [r3]
 266:Generated_Source\PSoC4/UART_UART.c ****     #endif /* !(UART_CY_SCBIP_V0 || UART_CY_SCBIP_V1) */
 267:Generated_Source\PSoC4/UART_UART.c **** 
 268:Generated_Source\PSoC4/UART_UART.c ****         /* Configure interrupt with UART handler but do not enable it */
 269:Generated_Source\PSoC4/UART_UART.c ****     #if(UART_SCB_IRQ_INTERNAL)
ARM GAS  C:\Users\Kyle\AppData\Local\Temp\ccKSi1be.s 			page 7


 270:Generated_Source\PSoC4/UART_UART.c ****         CyIntDisable    (UART_ISR_NUMBER);
  74              		.loc 1 270 0
  75 0036 0430     		adds	r0, r0, #4
  76 0038 FFF7FEFF 		bl	CyIntDisable
  77              	.LVL0:
 271:Generated_Source\PSoC4/UART_UART.c ****         CyIntSetPriority(UART_ISR_NUMBER, UART_ISR_PRIORITY);
  78              		.loc 1 271 0
  79 003c 0321     		movs	r1, #3
  80 003e 0B20     		movs	r0, #11
  81 0040 FFF7FEFF 		bl	CyIntSetPriority
  82              	.LVL1:
 272:Generated_Source\PSoC4/UART_UART.c ****         (void) CyIntSetVector(UART_ISR_NUMBER, &UART_SPI_UART_ISR);
  83              		.loc 1 272 0
  84 0044 1A49     		ldr	r1, .L2+48
  85 0046 0B20     		movs	r0, #11
  86 0048 FFF7FEFF 		bl	CyIntSetVector
  87              	.LVL2:
 273:Generated_Source\PSoC4/UART_UART.c ****     #endif /* (UART_SCB_IRQ_INTERNAL) */
 274:Generated_Source\PSoC4/UART_UART.c **** 
 275:Generated_Source\PSoC4/UART_UART.c ****         /* Configure WAKE interrupt */
 276:Generated_Source\PSoC4/UART_UART.c ****     #if(UART_UART_RX_WAKEUP_IRQ)
 277:Generated_Source\PSoC4/UART_UART.c ****         CyIntDisable    (UART_RX_WAKE_ISR_NUMBER);
 278:Generated_Source\PSoC4/UART_UART.c ****         CyIntSetPriority(UART_RX_WAKE_ISR_NUMBER, UART_RX_WAKE_ISR_PRIORITY);
 279:Generated_Source\PSoC4/UART_UART.c ****         (void) CyIntSetVector(UART_RX_WAKE_ISR_NUMBER, &UART_UART_WAKEUP_ISR);
 280:Generated_Source\PSoC4/UART_UART.c ****     #endif /* (UART_UART_RX_WAKEUP_IRQ) */
 281:Generated_Source\PSoC4/UART_UART.c **** 
 282:Generated_Source\PSoC4/UART_UART.c ****         /* Configure interrupt sources */
 283:Generated_Source\PSoC4/UART_UART.c ****         UART_INTR_I2C_EC_MASK_REG = UART_UART_DEFAULT_INTR_I2C_EC_MASK;
  88              		.loc 1 283 0
  89 004c 194B     		ldr	r3, .L2+52
  90 004e 1C60     		str	r4, [r3]
 284:Generated_Source\PSoC4/UART_UART.c ****         UART_INTR_SPI_EC_MASK_REG = UART_UART_DEFAULT_INTR_SPI_EC_MASK;
  91              		.loc 1 284 0
  92 0050 194B     		ldr	r3, .L2+56
  93 0052 1C60     		str	r4, [r3]
 285:Generated_Source\PSoC4/UART_UART.c ****         UART_INTR_SLAVE_MASK_REG  = UART_UART_DEFAULT_INTR_SLAVE_MASK;
  94              		.loc 1 285 0
  95 0054 194B     		ldr	r3, .L2+60
  96 0056 1C60     		str	r4, [r3]
 286:Generated_Source\PSoC4/UART_UART.c ****         UART_INTR_MASTER_MASK_REG = UART_UART_DEFAULT_INTR_MASTER_MASK;
  97              		.loc 1 286 0
  98 0058 194B     		ldr	r3, .L2+64
  99 005a 1C60     		str	r4, [r3]
 287:Generated_Source\PSoC4/UART_UART.c ****         UART_INTR_RX_MASK_REG     = UART_UART_DEFAULT_INTR_RX_MASK;
 100              		.loc 1 287 0
 101 005c 194B     		ldr	r3, .L2+68
 102 005e 1D60     		str	r5, [r3]
 288:Generated_Source\PSoC4/UART_UART.c ****         UART_INTR_TX_MASK_REG     = UART_UART_DEFAULT_INTR_TX_MASK;
 103              		.loc 1 288 0
 104 0060 194B     		ldr	r3, .L2+72
 105 0062 1C60     		str	r4, [r3]
 289:Generated_Source\PSoC4/UART_UART.c ****     
 290:Generated_Source\PSoC4/UART_UART.c ****         /* Configure TX interrupt sources to restore. */
 291:Generated_Source\PSoC4/UART_UART.c ****         UART_IntrTxMask = LO16(UART_INTR_TX_MASK_REG);
 106              		.loc 1 291 0
 107 0064 1A68     		ldr	r2, [r3]
 108 0066 194B     		ldr	r3, .L2+76
ARM GAS  C:\Users\Kyle\AppData\Local\Temp\ccKSi1be.s 			page 8


 109 0068 1A80     		strh	r2, [r3]
 292:Generated_Source\PSoC4/UART_UART.c **** 
 293:Generated_Source\PSoC4/UART_UART.c ****     #if(UART_INTERNAL_RX_SW_BUFFER_CONST)
 294:Generated_Source\PSoC4/UART_UART.c ****         UART_rxBufferHead     = 0u;
 110              		.loc 1 294 0
 111 006a 194B     		ldr	r3, .L2+80
 112 006c 1C60     		str	r4, [r3]
 295:Generated_Source\PSoC4/UART_UART.c ****         UART_rxBufferTail     = 0u;
 113              		.loc 1 295 0
 114 006e 194B     		ldr	r3, .L2+84
 115 0070 1C60     		str	r4, [r3]
 296:Generated_Source\PSoC4/UART_UART.c ****         UART_rxBufferOverflow = 0u;
 116              		.loc 1 296 0
 117 0072 194B     		ldr	r3, .L2+88
 118 0074 1C70     		strb	r4, [r3]
 297:Generated_Source\PSoC4/UART_UART.c ****     #endif /* (UART_INTERNAL_RX_SW_BUFFER_CONST) */
 298:Generated_Source\PSoC4/UART_UART.c **** 
 299:Generated_Source\PSoC4/UART_UART.c ****     #if(UART_INTERNAL_TX_SW_BUFFER_CONST)
 300:Generated_Source\PSoC4/UART_UART.c ****         UART_txBufferHead = 0u;
 119              		.loc 1 300 0
 120 0076 194B     		ldr	r3, .L2+92
 121 0078 1C60     		str	r4, [r3]
 301:Generated_Source\PSoC4/UART_UART.c ****         UART_txBufferTail = 0u;
 122              		.loc 1 301 0
 123 007a 194B     		ldr	r3, .L2+96
 124 007c 1C60     		str	r4, [r3]
 302:Generated_Source\PSoC4/UART_UART.c ****     #endif /* (UART_INTERNAL_TX_SW_BUFFER_CONST) */
 303:Generated_Source\PSoC4/UART_UART.c ****     }
 125              		.loc 1 303 0
 126              		@ sp needed
 127 007e 70BD     		pop	{r4, r5, r6, pc}
 128              	.L3:
 129              		.align	2
 130              	.L2:
 131 0080 0B080002 		.word	33556491
 132 0084 00002740 		.word	1076297728
 133 0088 40002740 		.word	1076297792
 134 008c 48002740 		.word	1076297800
 135 0090 07000080 		.word	-2147483641
 136 0094 00032740 		.word	1076298496
 137 0098 04032740 		.word	1076298500
 138 009c 10032740 		.word	1076298512
 139 00a0 44002740 		.word	1076297796
 140 00a4 00022740 		.word	1076298240
 141 00a8 04022740 		.word	1076298244
 142 00ac 50002740 		.word	1076297808
 143 00b0 00000000 		.word	UART_SPI_UART_ISR
 144 00b4 880E2740 		.word	1076301448
 145 00b8 C80E2740 		.word	1076301512
 146 00bc 480F2740 		.word	1076301640
 147 00c0 080F2740 		.word	1076301576
 148 00c4 C80F2740 		.word	1076301768
 149 00c8 880F2740 		.word	1076301704
 150 00cc 00000000 		.word	UART_IntrTxMask
 151 00d0 00000000 		.word	UART_rxBufferHead
 152 00d4 00000000 		.word	UART_rxBufferTail
 153 00d8 00000000 		.word	UART_rxBufferOverflow
ARM GAS  C:\Users\Kyle\AppData\Local\Temp\ccKSi1be.s 			page 9


 154 00dc 00000000 		.word	UART_txBufferHead
 155 00e0 00000000 		.word	UART_txBufferTail
 156              		.cfi_endproc
 157              	.LFE1:
 158              		.size	UART_UartInit, .-UART_UartInit
 159              		.section	.text.UART_UartPostEnable,"ax",%progbits
 160              		.align	2
 161              		.global	UART_UartPostEnable
 162              		.code	16
 163              		.thumb_func
 164              		.type	UART_UartPostEnable, %function
 165              	UART_UartPostEnable:
 166              	.LFB2:
 304:Generated_Source\PSoC4/UART_UART.c **** #endif /* (UART_SCB_MODE_UNCONFIG_CONST_CFG) */
 305:Generated_Source\PSoC4/UART_UART.c **** 
 306:Generated_Source\PSoC4/UART_UART.c **** 
 307:Generated_Source\PSoC4/UART_UART.c **** /*******************************************************************************
 308:Generated_Source\PSoC4/UART_UART.c **** * Function Name: UART_UartPostEnable
 309:Generated_Source\PSoC4/UART_UART.c **** ****************************************************************************//**
 310:Generated_Source\PSoC4/UART_UART.c **** *
 311:Generated_Source\PSoC4/UART_UART.c **** *  Restores HSIOM settings for the UART output pins (TX and/or RTS) to be
 312:Generated_Source\PSoC4/UART_UART.c **** *  controlled by the SCB UART.
 313:Generated_Source\PSoC4/UART_UART.c **** *
 314:Generated_Source\PSoC4/UART_UART.c **** *******************************************************************************/
 315:Generated_Source\PSoC4/UART_UART.c **** void UART_UartPostEnable(void)
 316:Generated_Source\PSoC4/UART_UART.c **** {
 167              		.loc 1 316 0
 168              		.cfi_startproc
 169              		@ args = 0, pretend = 0, frame = 0
 170              		@ frame_needed = 0, uses_anonymous_args = 0
 171              		@ link register save eliminated.
 317:Generated_Source\PSoC4/UART_UART.c **** #if (UART_SCB_MODE_UNCONFIG_CONST_CFG)
 318:Generated_Source\PSoC4/UART_UART.c ****     #if (UART_TX_SDA_MISO_PIN)
 319:Generated_Source\PSoC4/UART_UART.c ****         if (UART_CHECK_TX_SDA_MISO_PIN_USED)
 320:Generated_Source\PSoC4/UART_UART.c ****         {
 321:Generated_Source\PSoC4/UART_UART.c ****             /* Set SCB UART to drive the output pin */
 322:Generated_Source\PSoC4/UART_UART.c ****             UART_SET_HSIOM_SEL(UART_TX_SDA_MISO_HSIOM_REG, UART_TX_SDA_MISO_HSIOM_MASK,
 323:Generated_Source\PSoC4/UART_UART.c ****                                            UART_TX_SDA_MISO_HSIOM_POS, UART_TX_SDA_MISO_HSIOM_SEL_U
 324:Generated_Source\PSoC4/UART_UART.c ****         }
 325:Generated_Source\PSoC4/UART_UART.c ****     #endif /* (UART_TX_SDA_MISO_PIN_PIN) */
 326:Generated_Source\PSoC4/UART_UART.c **** 
 327:Generated_Source\PSoC4/UART_UART.c ****     #if !(UART_CY_SCBIP_V0 || UART_CY_SCBIP_V1)
 328:Generated_Source\PSoC4/UART_UART.c ****         #if (UART_RTS_SS0_PIN)
 329:Generated_Source\PSoC4/UART_UART.c ****             if (UART_CHECK_RTS_SS0_PIN_USED)
 330:Generated_Source\PSoC4/UART_UART.c ****             {
 331:Generated_Source\PSoC4/UART_UART.c ****                 /* Set SCB UART to drive the output pin */
 332:Generated_Source\PSoC4/UART_UART.c ****                 UART_SET_HSIOM_SEL(UART_RTS_SS0_HSIOM_REG, UART_RTS_SS0_HSIOM_MASK,
 333:Generated_Source\PSoC4/UART_UART.c ****                                                UART_RTS_SS0_HSIOM_POS, UART_RTS_SS0_HSIOM_SEL_UART)
 334:Generated_Source\PSoC4/UART_UART.c ****             }
 335:Generated_Source\PSoC4/UART_UART.c ****         #endif /* (UART_RTS_SS0_PIN) */
 336:Generated_Source\PSoC4/UART_UART.c ****     #endif /* !(UART_CY_SCBIP_V0 || UART_CY_SCBIP_V1) */
 337:Generated_Source\PSoC4/UART_UART.c **** 
 338:Generated_Source\PSoC4/UART_UART.c **** #else
 339:Generated_Source\PSoC4/UART_UART.c ****     #if (UART_UART_TX_PIN)
 340:Generated_Source\PSoC4/UART_UART.c ****          /* Set SCB UART to drive the output pin */
 341:Generated_Source\PSoC4/UART_UART.c ****         UART_SET_HSIOM_SEL(UART_TX_HSIOM_REG, UART_TX_HSIOM_MASK,
 172              		.loc 1 341 0
ARM GAS  C:\Users\Kyle\AppData\Local\Temp\ccKSi1be.s 			page 10


 173 0000 0549     		ldr	r1, .L5
 174 0002 0B68     		ldr	r3, [r1]
 175 0004 F022     		movs	r2, #240
 176 0006 9343     		bics	r3, r2
 177 0008 603A     		subs	r2, r2, #96
 178 000a 1343     		orrs	r3, r2
 179 000c 0B60     		str	r3, [r1]
 342:Generated_Source\PSoC4/UART_UART.c ****                                        UART_TX_HSIOM_POS, UART_TX_HSIOM_SEL_UART);
 343:Generated_Source\PSoC4/UART_UART.c ****     #endif /* (UART_UART_TX_PIN) */
 344:Generated_Source\PSoC4/UART_UART.c **** 
 345:Generated_Source\PSoC4/UART_UART.c ****     #if (UART_UART_RTS_PIN)
 346:Generated_Source\PSoC4/UART_UART.c ****         /* Set SCB UART to drive the output pin */
 347:Generated_Source\PSoC4/UART_UART.c ****         UART_SET_HSIOM_SEL(UART_RTS_HSIOM_REG, UART_RTS_HSIOM_MASK,
 348:Generated_Source\PSoC4/UART_UART.c ****                                        UART_RTS_HSIOM_POS, UART_RTS_HSIOM_SEL_UART);
 349:Generated_Source\PSoC4/UART_UART.c ****     #endif /* (UART_UART_RTS_PIN) */
 350:Generated_Source\PSoC4/UART_UART.c **** #endif /* (UART_SCB_MODE_UNCONFIG_CONST_CFG) */
 351:Generated_Source\PSoC4/UART_UART.c **** 
 352:Generated_Source\PSoC4/UART_UART.c ****     /* Restore TX interrupt sources. */
 353:Generated_Source\PSoC4/UART_UART.c ****     UART_SetTxInterruptMode(UART_IntrTxMask);
 180              		.loc 1 353 0
 181 000e 034B     		ldr	r3, .L5+4
 182 0010 1A88     		ldrh	r2, [r3]
 183 0012 034B     		ldr	r3, .L5+8
 184 0014 1A60     		str	r2, [r3]
 354:Generated_Source\PSoC4/UART_UART.c **** }
 185              		.loc 1 354 0
 186              		@ sp needed
 187 0016 7047     		bx	lr
 188              	.L6:
 189              		.align	2
 190              	.L5:
 191 0018 00070240 		.word	1073874688
 192 001c 00000000 		.word	UART_IntrTxMask
 193 0020 880F2740 		.word	1076301704
 194              		.cfi_endproc
 195              	.LFE2:
 196              		.size	UART_UartPostEnable, .-UART_UartPostEnable
 197              		.section	.text.UART_UartStop,"ax",%progbits
 198              		.align	2
 199              		.global	UART_UartStop
 200              		.code	16
 201              		.thumb_func
 202              		.type	UART_UartStop, %function
 203              	UART_UartStop:
 204              	.LFB3:
 355:Generated_Source\PSoC4/UART_UART.c **** 
 356:Generated_Source\PSoC4/UART_UART.c **** 
 357:Generated_Source\PSoC4/UART_UART.c **** /*******************************************************************************
 358:Generated_Source\PSoC4/UART_UART.c **** * Function Name: UART_UartStop
 359:Generated_Source\PSoC4/UART_UART.c **** ****************************************************************************//**
 360:Generated_Source\PSoC4/UART_UART.c **** *
 361:Generated_Source\PSoC4/UART_UART.c **** *  Changes the HSIOM settings for the UART output pins (TX and/or RTS) to keep
 362:Generated_Source\PSoC4/UART_UART.c **** *  them inactive after the block is disabled. The output pins are controlled by
 363:Generated_Source\PSoC4/UART_UART.c **** *  the GPIO data register. Also, the function disables the skip start feature
 364:Generated_Source\PSoC4/UART_UART.c **** *  to not cause it to trigger after the component is enabled.
 365:Generated_Source\PSoC4/UART_UART.c **** *
 366:Generated_Source\PSoC4/UART_UART.c **** *******************************************************************************/
ARM GAS  C:\Users\Kyle\AppData\Local\Temp\ccKSi1be.s 			page 11


 367:Generated_Source\PSoC4/UART_UART.c **** void UART_UartStop(void)
 368:Generated_Source\PSoC4/UART_UART.c **** {
 205              		.loc 1 368 0
 206              		.cfi_startproc
 207              		@ args = 0, pretend = 0, frame = 0
 208              		@ frame_needed = 0, uses_anonymous_args = 0
 209              		@ link register save eliminated.
 369:Generated_Source\PSoC4/UART_UART.c **** #if(UART_SCB_MODE_UNCONFIG_CONST_CFG)
 370:Generated_Source\PSoC4/UART_UART.c ****     #if (UART_TX_SDA_MISO_PIN)
 371:Generated_Source\PSoC4/UART_UART.c ****         if (UART_CHECK_TX_SDA_MISO_PIN_USED)
 372:Generated_Source\PSoC4/UART_UART.c ****         {
 373:Generated_Source\PSoC4/UART_UART.c ****             /* Set GPIO to drive output pin */
 374:Generated_Source\PSoC4/UART_UART.c ****             UART_SET_HSIOM_SEL(UART_TX_SDA_MISO_HSIOM_REG, UART_TX_SDA_MISO_HSIOM_MASK,
 375:Generated_Source\PSoC4/UART_UART.c ****                                            UART_TX_SDA_MISO_HSIOM_POS, UART_TX_SDA_MISO_HSIOM_SEL_G
 376:Generated_Source\PSoC4/UART_UART.c ****         }
 377:Generated_Source\PSoC4/UART_UART.c ****     #endif /* (UART_TX_SDA_MISO_PIN_PIN) */
 378:Generated_Source\PSoC4/UART_UART.c **** 
 379:Generated_Source\PSoC4/UART_UART.c ****     #if !(UART_CY_SCBIP_V0 || UART_CY_SCBIP_V1)
 380:Generated_Source\PSoC4/UART_UART.c ****         #if (UART_RTS_SS0_PIN)
 381:Generated_Source\PSoC4/UART_UART.c ****             if (UART_CHECK_RTS_SS0_PIN_USED)
 382:Generated_Source\PSoC4/UART_UART.c ****             {
 383:Generated_Source\PSoC4/UART_UART.c ****                 /* Set output pin state after block is disabled */
 384:Generated_Source\PSoC4/UART_UART.c ****                 UART_uart_rts_spi_ss0_Write(UART_GET_UART_RTS_INACTIVE);
 385:Generated_Source\PSoC4/UART_UART.c **** 
 386:Generated_Source\PSoC4/UART_UART.c ****                 /* Set GPIO to drive output pin */
 387:Generated_Source\PSoC4/UART_UART.c ****                 UART_SET_HSIOM_SEL(UART_RTS_SS0_HSIOM_REG, UART_RTS_SS0_HSIOM_MASK,
 388:Generated_Source\PSoC4/UART_UART.c ****                                                UART_RTS_SS0_HSIOM_POS, UART_RTS_SS0_HSIOM_SEL_GPIO)
 389:Generated_Source\PSoC4/UART_UART.c ****             }
 390:Generated_Source\PSoC4/UART_UART.c ****         #endif /* (UART_RTS_SS0_PIN) */
 391:Generated_Source\PSoC4/UART_UART.c ****     #endif /* !(UART_CY_SCBIP_V0 || UART_CY_SCBIP_V1) */
 392:Generated_Source\PSoC4/UART_UART.c **** 
 393:Generated_Source\PSoC4/UART_UART.c **** #else
 394:Generated_Source\PSoC4/UART_UART.c ****     #if (UART_UART_TX_PIN)
 395:Generated_Source\PSoC4/UART_UART.c ****         /* Set GPIO to drive output pin */
 396:Generated_Source\PSoC4/UART_UART.c ****         UART_SET_HSIOM_SEL(UART_TX_HSIOM_REG, UART_TX_HSIOM_MASK,
 210              		.loc 1 396 0
 211 0000 064A     		ldr	r2, .L8
 212 0002 1368     		ldr	r3, [r2]
 213 0004 F021     		movs	r1, #240
 214 0006 8B43     		bics	r3, r1
 215 0008 1360     		str	r3, [r2]
 397:Generated_Source\PSoC4/UART_UART.c ****                                        UART_TX_HSIOM_POS, UART_TX_HSIOM_SEL_GPIO);
 398:Generated_Source\PSoC4/UART_UART.c ****     #endif /* (UART_UART_TX_PIN) */
 399:Generated_Source\PSoC4/UART_UART.c **** 
 400:Generated_Source\PSoC4/UART_UART.c ****     #if (UART_UART_RTS_PIN)
 401:Generated_Source\PSoC4/UART_UART.c ****         /* Set output pin state after block is disabled */
 402:Generated_Source\PSoC4/UART_UART.c ****         UART_rts_Write(UART_GET_UART_RTS_INACTIVE);
 403:Generated_Source\PSoC4/UART_UART.c **** 
 404:Generated_Source\PSoC4/UART_UART.c ****         /* Set GPIO to drive output pin */
 405:Generated_Source\PSoC4/UART_UART.c ****         UART_SET_HSIOM_SEL(UART_RTS_HSIOM_REG, UART_RTS_HSIOM_MASK,
 406:Generated_Source\PSoC4/UART_UART.c ****                                        UART_RTS_HSIOM_POS, UART_RTS_HSIOM_SEL_GPIO);
 407:Generated_Source\PSoC4/UART_UART.c ****     #endif /* (UART_UART_RTS_PIN) */
 408:Generated_Source\PSoC4/UART_UART.c **** 
 409:Generated_Source\PSoC4/UART_UART.c **** #endif /* (UART_SCB_MODE_UNCONFIG_CONST_CFG) */
 410:Generated_Source\PSoC4/UART_UART.c **** 
 411:Generated_Source\PSoC4/UART_UART.c **** #if (UART_UART_WAKE_ENABLE_CONST)
 412:Generated_Source\PSoC4/UART_UART.c ****     /* Disable skip start feature used for wakeup */
ARM GAS  C:\Users\Kyle\AppData\Local\Temp\ccKSi1be.s 			page 12


 413:Generated_Source\PSoC4/UART_UART.c ****     UART_UART_RX_CTRL_REG &= (uint32) ~UART_UART_RX_CTRL_SKIP_START;
 414:Generated_Source\PSoC4/UART_UART.c **** #endif /* (UART_UART_WAKE_ENABLE_CONST) */
 415:Generated_Source\PSoC4/UART_UART.c **** 
 416:Generated_Source\PSoC4/UART_UART.c ****     /* Store TX interrupt sources (exclude level triggered). */
 417:Generated_Source\PSoC4/UART_UART.c ****     UART_IntrTxMask = LO16(UART_GetTxInterruptMode() & UART_INTR_UART_TX_RESTORE);
 216              		.loc 1 417 0
 217 000a 054B     		ldr	r3, .L8+4
 218 000c 1A68     		ldr	r2, [r3]
 219 000e E423     		movs	r3, #228
 220 0010 DB00     		lsls	r3, r3, #3
 221 0012 1340     		ands	r3, r2
 222 0014 034A     		ldr	r2, .L8+8
 223 0016 1380     		strh	r3, [r2]
 418:Generated_Source\PSoC4/UART_UART.c **** }
 224              		.loc 1 418 0
 225              		@ sp needed
 226 0018 7047     		bx	lr
 227              	.L9:
 228 001a C046     		.align	2
 229              	.L8:
 230 001c 00070240 		.word	1073874688
 231 0020 880F2740 		.word	1076301704
 232 0024 00000000 		.word	UART_IntrTxMask
 233              		.cfi_endproc
 234              	.LFE3:
 235              		.size	UART_UartStop, .-UART_UartStop
 236              		.section	.text.UART_UartSetRxAddress,"ax",%progbits
 237              		.align	2
 238              		.global	UART_UartSetRxAddress
 239              		.code	16
 240              		.thumb_func
 241              		.type	UART_UartSetRxAddress, %function
 242              	UART_UartSetRxAddress:
 243              	.LFB4:
 419:Generated_Source\PSoC4/UART_UART.c **** 
 420:Generated_Source\PSoC4/UART_UART.c **** 
 421:Generated_Source\PSoC4/UART_UART.c **** /*******************************************************************************
 422:Generated_Source\PSoC4/UART_UART.c **** * Function Name: UART_UartSetRxAddress
 423:Generated_Source\PSoC4/UART_UART.c **** ****************************************************************************//**
 424:Generated_Source\PSoC4/UART_UART.c **** *
 425:Generated_Source\PSoC4/UART_UART.c **** *  Sets the hardware detectable receiver address for the UART in the
 426:Generated_Source\PSoC4/UART_UART.c **** *  Multiprocessor mode.
 427:Generated_Source\PSoC4/UART_UART.c **** *
 428:Generated_Source\PSoC4/UART_UART.c **** *  \param address: Address for hardware address detection.
 429:Generated_Source\PSoC4/UART_UART.c **** *
 430:Generated_Source\PSoC4/UART_UART.c **** *******************************************************************************/
 431:Generated_Source\PSoC4/UART_UART.c **** void UART_UartSetRxAddress(uint32 address)
 432:Generated_Source\PSoC4/UART_UART.c **** {
 244              		.loc 1 432 0
 245              		.cfi_startproc
 246              		@ args = 0, pretend = 0, frame = 0
 247              		@ frame_needed = 0, uses_anonymous_args = 0
 248              		@ link register save eliminated.
 249              	.LVL3:
 433:Generated_Source\PSoC4/UART_UART.c ****      uint32 matchReg;
 434:Generated_Source\PSoC4/UART_UART.c **** 
 435:Generated_Source\PSoC4/UART_UART.c ****     matchReg = UART_RX_MATCH_REG;
ARM GAS  C:\Users\Kyle\AppData\Local\Temp\ccKSi1be.s 			page 13


 250              		.loc 1 435 0
 251 0000 034A     		ldr	r2, .L11
 252 0002 1368     		ldr	r3, [r2]
 253              	.LVL4:
 436:Generated_Source\PSoC4/UART_UART.c **** 
 437:Generated_Source\PSoC4/UART_UART.c ****     matchReg &= ((uint32) ~UART_RX_MATCH_ADDR_MASK); /* Clear address bits */
 254              		.loc 1 437 0
 255 0004 FF21     		movs	r1, #255
 256 0006 8B43     		bics	r3, r1
 257              	.LVL5:
 438:Generated_Source\PSoC4/UART_UART.c ****     matchReg |= ((uint32)  (address & UART_RX_MATCH_ADDR_MASK)); /* Set address  */
 258              		.loc 1 438 0
 259 0008 0840     		ands	r0, r1
 260              	.LVL6:
 261 000a 1843     		orrs	r0, r3
 262              	.LVL7:
 439:Generated_Source\PSoC4/UART_UART.c **** 
 440:Generated_Source\PSoC4/UART_UART.c ****     UART_RX_MATCH_REG = matchReg;
 263              		.loc 1 440 0
 264 000c 1060     		str	r0, [r2]
 441:Generated_Source\PSoC4/UART_UART.c **** }
 265              		.loc 1 441 0
 266              		@ sp needed
 267 000e 7047     		bx	lr
 268              	.L12:
 269              		.align	2
 270              	.L11:
 271 0010 10032740 		.word	1076298512
 272              		.cfi_endproc
 273              	.LFE4:
 274              		.size	UART_UartSetRxAddress, .-UART_UartSetRxAddress
 275              		.section	.text.UART_UartSetRxAddressMask,"ax",%progbits
 276              		.align	2
 277              		.global	UART_UartSetRxAddressMask
 278              		.code	16
 279              		.thumb_func
 280              		.type	UART_UartSetRxAddressMask, %function
 281              	UART_UartSetRxAddressMask:
 282              	.LFB5:
 442:Generated_Source\PSoC4/UART_UART.c **** 
 443:Generated_Source\PSoC4/UART_UART.c **** 
 444:Generated_Source\PSoC4/UART_UART.c **** /*******************************************************************************
 445:Generated_Source\PSoC4/UART_UART.c **** * Function Name: UART_UartSetRxAddressMask
 446:Generated_Source\PSoC4/UART_UART.c **** ****************************************************************************//**
 447:Generated_Source\PSoC4/UART_UART.c **** *
 448:Generated_Source\PSoC4/UART_UART.c **** *  Sets the hardware address mask for the UART in the Multiprocessor mode.
 449:Generated_Source\PSoC4/UART_UART.c **** *
 450:Generated_Source\PSoC4/UART_UART.c **** *  \param addressMask: Address mask.
 451:Generated_Source\PSoC4/UART_UART.c **** *   - Bit value 0 – excludes bit from address comparison.
 452:Generated_Source\PSoC4/UART_UART.c **** *   - Bit value 1 – the bit needs to match with the corresponding bit
 453:Generated_Source\PSoC4/UART_UART.c **** *     of the address.
 454:Generated_Source\PSoC4/UART_UART.c **** *
 455:Generated_Source\PSoC4/UART_UART.c **** *******************************************************************************/
 456:Generated_Source\PSoC4/UART_UART.c **** void UART_UartSetRxAddressMask(uint32 addressMask)
 457:Generated_Source\PSoC4/UART_UART.c **** {
 283              		.loc 1 457 0
 284              		.cfi_startproc
ARM GAS  C:\Users\Kyle\AppData\Local\Temp\ccKSi1be.s 			page 14


 285              		@ args = 0, pretend = 0, frame = 0
 286              		@ frame_needed = 0, uses_anonymous_args = 0
 287              		@ link register save eliminated.
 288              	.LVL8:
 458:Generated_Source\PSoC4/UART_UART.c ****     uint32 matchReg;
 459:Generated_Source\PSoC4/UART_UART.c **** 
 460:Generated_Source\PSoC4/UART_UART.c ****     matchReg = UART_RX_MATCH_REG;
 289              		.loc 1 460 0
 290 0000 034A     		ldr	r2, .L14
 291 0002 1168     		ldr	r1, [r2]
 292              	.LVL9:
 461:Generated_Source\PSoC4/UART_UART.c **** 
 462:Generated_Source\PSoC4/UART_UART.c ****     matchReg &= ((uint32) ~UART_RX_MATCH_MASK_MASK); /* Clear address mask bits */
 293              		.loc 1 462 0
 294 0004 034B     		ldr	r3, .L14+4
 295 0006 0B40     		ands	r3, r1
 296              	.LVL10:
 463:Generated_Source\PSoC4/UART_UART.c ****     matchReg |= ((uint32) (addressMask << UART_RX_MATCH_MASK_POS));
 297              		.loc 1 463 0
 298 0008 0004     		lsls	r0, r0, #16
 299              	.LVL11:
 300 000a 1843     		orrs	r0, r3
 301              	.LVL12:
 464:Generated_Source\PSoC4/UART_UART.c **** 
 465:Generated_Source\PSoC4/UART_UART.c ****     UART_RX_MATCH_REG = matchReg;
 302              		.loc 1 465 0
 303 000c 1060     		str	r0, [r2]
 466:Generated_Source\PSoC4/UART_UART.c **** }
 304              		.loc 1 466 0
 305              		@ sp needed
 306 000e 7047     		bx	lr
 307              	.L15:
 308              		.align	2
 309              	.L14:
 310 0010 10032740 		.word	1076298512
 311 0014 FFFF00FF 		.word	-16711681
 312              		.cfi_endproc
 313              	.LFE5:
 314              		.size	UART_UartSetRxAddressMask, .-UART_UartSetRxAddressMask
 315              		.section	.text.UART_UartGetChar,"ax",%progbits
 316              		.align	2
 317              		.global	UART_UartGetChar
 318              		.code	16
 319              		.thumb_func
 320              		.type	UART_UartGetChar, %function
 321              	UART_UartGetChar:
 322              	.LFB6:
 467:Generated_Source\PSoC4/UART_UART.c **** 
 468:Generated_Source\PSoC4/UART_UART.c **** 
 469:Generated_Source\PSoC4/UART_UART.c **** #if(UART_UART_RX_DIRECTION)
 470:Generated_Source\PSoC4/UART_UART.c ****     /*******************************************************************************
 471:Generated_Source\PSoC4/UART_UART.c ****     * Function Name: UART_UartGetChar
 472:Generated_Source\PSoC4/UART_UART.c ****     ****************************************************************************//**
 473:Generated_Source\PSoC4/UART_UART.c ****     *
 474:Generated_Source\PSoC4/UART_UART.c ****     *  Retrieves next data element from receive buffer.
 475:Generated_Source\PSoC4/UART_UART.c ****     *  This function is designed for ASCII characters and returns a char where
 476:Generated_Source\PSoC4/UART_UART.c ****     *  1 to 255 are valid characters and 0 indicates an error occurred or no data
ARM GAS  C:\Users\Kyle\AppData\Local\Temp\ccKSi1be.s 			page 15


 477:Generated_Source\PSoC4/UART_UART.c ****     *  is present.
 478:Generated_Source\PSoC4/UART_UART.c ****     *  - RX software buffer is disabled: Returns data element retrieved from RX
 479:Generated_Source\PSoC4/UART_UART.c ****     *    FIFO.
 480:Generated_Source\PSoC4/UART_UART.c ****     *  - RX software buffer is enabled: Returns data element from the software
 481:Generated_Source\PSoC4/UART_UART.c ****     *    receive buffer.
 482:Generated_Source\PSoC4/UART_UART.c ****     *
 483:Generated_Source\PSoC4/UART_UART.c ****     *  \return
 484:Generated_Source\PSoC4/UART_UART.c ****     *   Next data element from the receive buffer. ASCII character values from
 485:Generated_Source\PSoC4/UART_UART.c ****     *   1 to 255 are valid. A returned zero signifies an error condition or no
 486:Generated_Source\PSoC4/UART_UART.c ****     *   data available.
 487:Generated_Source\PSoC4/UART_UART.c ****     *
 488:Generated_Source\PSoC4/UART_UART.c ****     *  \sideeffect
 489:Generated_Source\PSoC4/UART_UART.c ****     *   The errors bits may not correspond with reading characters due to
 490:Generated_Source\PSoC4/UART_UART.c ****     *   RX FIFO and software buffer usage.
 491:Generated_Source\PSoC4/UART_UART.c ****     *   RX software buffer is enabled: The internal software buffer overflow
 492:Generated_Source\PSoC4/UART_UART.c ****     *   is not treated as an error condition.
 493:Generated_Source\PSoC4/UART_UART.c ****     *   Check UART_rxBufferOverflow to capture that error condition.
 494:Generated_Source\PSoC4/UART_UART.c ****     *
 495:Generated_Source\PSoC4/UART_UART.c ****     *******************************************************************************/
 496:Generated_Source\PSoC4/UART_UART.c ****     uint32 UART_UartGetChar(void)
 497:Generated_Source\PSoC4/UART_UART.c ****     {
 323              		.loc 1 497 0
 324              		.cfi_startproc
 325              		@ args = 0, pretend = 0, frame = 0
 326              		@ frame_needed = 0, uses_anonymous_args = 0
 327 0000 10B5     		push	{r4, lr}
 328              		.cfi_def_cfa_offset 8
 329              		.cfi_offset 4, -8
 330              		.cfi_offset 14, -4
 331              	.LVL13:
 498:Generated_Source\PSoC4/UART_UART.c ****         uint32 rxData = 0u;
 499:Generated_Source\PSoC4/UART_UART.c **** 
 500:Generated_Source\PSoC4/UART_UART.c ****         /* Reads data only if there is data to read */
 501:Generated_Source\PSoC4/UART_UART.c ****         if (0u != UART_SpiUartGetRxBufferSize())
 332              		.loc 1 501 0
 333 0002 FFF7FEFF 		bl	UART_SpiUartGetRxBufferSize
 334              	.LVL14:
 335 0006 0028     		cmp	r0, #0
 336 0008 02D0     		beq	.L19
 502:Generated_Source\PSoC4/UART_UART.c ****         {
 503:Generated_Source\PSoC4/UART_UART.c ****             rxData = UART_SpiUartReadRxData();
 337              		.loc 1 503 0
 338 000a FFF7FEFF 		bl	UART_SpiUartReadRxData
 339              	.LVL15:
 340 000e 00E0     		b	.L17
 341              	.LVL16:
 342              	.L19:
 498:Generated_Source\PSoC4/UART_UART.c ****         uint32 rxData = 0u;
 343              		.loc 1 498 0
 344 0010 0020     		movs	r0, #0
 345              	.LVL17:
 346              	.L17:
 504:Generated_Source\PSoC4/UART_UART.c ****         }
 505:Generated_Source\PSoC4/UART_UART.c **** 
 506:Generated_Source\PSoC4/UART_UART.c ****         if (UART_CHECK_INTR_RX(UART_INTR_RX_ERR))
 347              		.loc 1 506 0
 348 0012 054B     		ldr	r3, .L20
ARM GAS  C:\Users\Kyle\AppData\Local\Temp\ccKSi1be.s 			page 16


 349 0014 1A68     		ldr	r2, [r3]
 350 0016 D823     		movs	r3, #216
 351 0018 9B00     		lsls	r3, r3, #2
 352 001a 1A42     		tst	r2, r3
 353 001c 03D0     		beq	.L18
 354              	.LVL18:
 507:Generated_Source\PSoC4/UART_UART.c ****         {
 508:Generated_Source\PSoC4/UART_UART.c ****             rxData = 0u; /* Error occurred: returns zero */
 509:Generated_Source\PSoC4/UART_UART.c ****             UART_ClearRxInterruptSource(UART_INTR_RX_ERR);
 355              		.loc 1 509 0
 356 001e 1A00     		movs	r2, r3
 357 0020 014B     		ldr	r3, .L20
 358 0022 1A60     		str	r2, [r3]
 508:Generated_Source\PSoC4/UART_UART.c ****             UART_ClearRxInterruptSource(UART_INTR_RX_ERR);
 359              		.loc 1 508 0
 360 0024 0020     		movs	r0, #0
 361              	.LVL19:
 362              	.L18:
 510:Generated_Source\PSoC4/UART_UART.c ****         }
 511:Generated_Source\PSoC4/UART_UART.c **** 
 512:Generated_Source\PSoC4/UART_UART.c ****         return (rxData);
 513:Generated_Source\PSoC4/UART_UART.c ****     }
 363              		.loc 1 513 0
 364              		@ sp needed
 365 0026 10BD     		pop	{r4, pc}
 366              	.L21:
 367              		.align	2
 368              	.L20:
 369 0028 C00F2740 		.word	1076301760
 370              		.cfi_endproc
 371              	.LFE6:
 372              		.size	UART_UartGetChar, .-UART_UartGetChar
 373              		.section	.text.UART_UartGetByte,"ax",%progbits
 374              		.align	2
 375              		.global	UART_UartGetByte
 376              		.code	16
 377              		.thumb_func
 378              		.type	UART_UartGetByte, %function
 379              	UART_UartGetByte:
 380              	.LFB7:
 514:Generated_Source\PSoC4/UART_UART.c **** 
 515:Generated_Source\PSoC4/UART_UART.c **** 
 516:Generated_Source\PSoC4/UART_UART.c ****     /*******************************************************************************
 517:Generated_Source\PSoC4/UART_UART.c ****     * Function Name: UART_UartGetByte
 518:Generated_Source\PSoC4/UART_UART.c ****     ****************************************************************************//**
 519:Generated_Source\PSoC4/UART_UART.c ****     *
 520:Generated_Source\PSoC4/UART_UART.c ****     *  Retrieves the next data element from the receive buffer, returns the
 521:Generated_Source\PSoC4/UART_UART.c ****     *  received byte and error condition.
 522:Generated_Source\PSoC4/UART_UART.c ****     *   - The RX software buffer is disabled: returns the data element retrieved
 523:Generated_Source\PSoC4/UART_UART.c ****     *     from the RX FIFO. Undefined data will be returned if the RX FIFO is
 524:Generated_Source\PSoC4/UART_UART.c ****     *     empty.
 525:Generated_Source\PSoC4/UART_UART.c ****     *   - The RX software buffer is enabled: returns data element from the
 526:Generated_Source\PSoC4/UART_UART.c ****     *     software receive buffer.
 527:Generated_Source\PSoC4/UART_UART.c ****     *
 528:Generated_Source\PSoC4/UART_UART.c ****     *  \return
 529:Generated_Source\PSoC4/UART_UART.c ****     *   Bits 7-0 contain the next data element from the receive buffer and
 530:Generated_Source\PSoC4/UART_UART.c ****     *   other bits contain the error condition.
ARM GAS  C:\Users\Kyle\AppData\Local\Temp\ccKSi1be.s 			page 17


 531:Generated_Source\PSoC4/UART_UART.c ****     *   - UART_UART_RX_OVERFLOW - Attempt to write to a full
 532:Generated_Source\PSoC4/UART_UART.c ****     *     receiver FIFO.
 533:Generated_Source\PSoC4/UART_UART.c ****     *   - UART_UART_RX_UNDERFLOW	Attempt to read from an empty
 534:Generated_Source\PSoC4/UART_UART.c ****     *     receiver FIFO.
 535:Generated_Source\PSoC4/UART_UART.c ****     *   - UART_UART_RX_FRAME_ERROR - UART framing error detected.
 536:Generated_Source\PSoC4/UART_UART.c ****     *   - UART_UART_RX_PARITY_ERROR - UART parity error detected.
 537:Generated_Source\PSoC4/UART_UART.c ****     *
 538:Generated_Source\PSoC4/UART_UART.c ****     *  \sideeffect
 539:Generated_Source\PSoC4/UART_UART.c ****     *   The errors bits may not correspond with reading characters due to
 540:Generated_Source\PSoC4/UART_UART.c ****     *   RX FIFO and software buffer usage.
 541:Generated_Source\PSoC4/UART_UART.c ****     *   RX software buffer is enabled: The internal software buffer overflow
 542:Generated_Source\PSoC4/UART_UART.c ****     *   is not treated as an error condition.
 543:Generated_Source\PSoC4/UART_UART.c ****     *   Check UART_rxBufferOverflow to capture that error condition.
 544:Generated_Source\PSoC4/UART_UART.c ****     *
 545:Generated_Source\PSoC4/UART_UART.c ****     *******************************************************************************/
 546:Generated_Source\PSoC4/UART_UART.c ****     uint32 UART_UartGetByte(void)
 547:Generated_Source\PSoC4/UART_UART.c ****     {
 381              		.loc 1 547 0
 382              		.cfi_startproc
 383              		@ args = 0, pretend = 0, frame = 0
 384              		@ frame_needed = 0, uses_anonymous_args = 0
 385 0000 10B5     		push	{r4, lr}
 386              		.cfi_def_cfa_offset 8
 387              		.cfi_offset 4, -8
 388              		.cfi_offset 14, -4
 548:Generated_Source\PSoC4/UART_UART.c ****         uint32 rxData;
 549:Generated_Source\PSoC4/UART_UART.c ****         uint32 tmpStatus;
 550:Generated_Source\PSoC4/UART_UART.c **** 
 551:Generated_Source\PSoC4/UART_UART.c ****         #if (UART_CHECK_RX_SW_BUFFER)
 552:Generated_Source\PSoC4/UART_UART.c ****         {
 553:Generated_Source\PSoC4/UART_UART.c ****             UART_DisableInt();
 389              		.loc 1 553 0
 390 0002 0B20     		movs	r0, #11
 391 0004 FFF7FEFF 		bl	CyIntDisable
 392              	.LVL20:
 554:Generated_Source\PSoC4/UART_UART.c ****         }
 555:Generated_Source\PSoC4/UART_UART.c ****         #endif
 556:Generated_Source\PSoC4/UART_UART.c **** 
 557:Generated_Source\PSoC4/UART_UART.c ****         if (0u != UART_SpiUartGetRxBufferSize())
 393              		.loc 1 557 0
 394 0008 FFF7FEFF 		bl	UART_SpiUartGetRxBufferSize
 395              	.LVL21:
 396 000c 0028     		cmp	r0, #0
 397 000e 06D0     		beq	.L23
 558:Generated_Source\PSoC4/UART_UART.c ****         {
 559:Generated_Source\PSoC4/UART_UART.c ****             /* Enables interrupt to receive more bytes: at least one byte is in
 560:Generated_Source\PSoC4/UART_UART.c ****             * buffer.
 561:Generated_Source\PSoC4/UART_UART.c ****             */
 562:Generated_Source\PSoC4/UART_UART.c ****             #if (UART_CHECK_RX_SW_BUFFER)
 563:Generated_Source\PSoC4/UART_UART.c ****             {
 564:Generated_Source\PSoC4/UART_UART.c ****                 UART_EnableInt();
 398              		.loc 1 564 0
 399 0010 0B20     		movs	r0, #11
 400 0012 FFF7FEFF 		bl	CyIntEnable
 401              	.LVL22:
 565:Generated_Source\PSoC4/UART_UART.c ****             }
 566:Generated_Source\PSoC4/UART_UART.c ****             #endif
ARM GAS  C:\Users\Kyle\AppData\Local\Temp\ccKSi1be.s 			page 18


 567:Generated_Source\PSoC4/UART_UART.c **** 
 568:Generated_Source\PSoC4/UART_UART.c ****             /* Get received byte */
 569:Generated_Source\PSoC4/UART_UART.c ****             rxData = UART_SpiUartReadRxData();
 402              		.loc 1 569 0
 403 0016 FFF7FEFF 		bl	UART_SpiUartReadRxData
 404              	.LVL23:
 405 001a 0400     		movs	r4, r0
 406              	.LVL24:
 407 001c 07E0     		b	.L24
 408              	.LVL25:
 409              	.L23:
 570:Generated_Source\PSoC4/UART_UART.c ****         }
 571:Generated_Source\PSoC4/UART_UART.c ****         else
 572:Generated_Source\PSoC4/UART_UART.c ****         {
 573:Generated_Source\PSoC4/UART_UART.c ****             /* Reads a byte directly from RX FIFO: underflow is raised in the
 574:Generated_Source\PSoC4/UART_UART.c ****             * case of empty. Otherwise the first received byte will be read.
 575:Generated_Source\PSoC4/UART_UART.c ****             */
 576:Generated_Source\PSoC4/UART_UART.c ****             rxData = UART_RX_FIFO_RD_REG;
 410              		.loc 1 576 0
 411 001e 094B     		ldr	r3, .L25
 412 0020 1C68     		ldr	r4, [r3]
 413              	.LVL26:
 577:Generated_Source\PSoC4/UART_UART.c **** 
 578:Generated_Source\PSoC4/UART_UART.c **** 
 579:Generated_Source\PSoC4/UART_UART.c ****             /* Enables interrupt to receive more bytes. */
 580:Generated_Source\PSoC4/UART_UART.c ****             #if (UART_CHECK_RX_SW_BUFFER)
 581:Generated_Source\PSoC4/UART_UART.c ****             {
 582:Generated_Source\PSoC4/UART_UART.c **** 
 583:Generated_Source\PSoC4/UART_UART.c ****                 /* The byte has been read from RX FIFO. Clear RX interrupt to
 584:Generated_Source\PSoC4/UART_UART.c ****                 * not involve interrupt handler when RX FIFO is empty.
 585:Generated_Source\PSoC4/UART_UART.c ****                 */
 586:Generated_Source\PSoC4/UART_UART.c ****                 UART_ClearRxInterruptSource(UART_INTR_RX_NOT_EMPTY);
 414              		.loc 1 586 0
 415 0022 0422     		movs	r2, #4
 416 0024 084B     		ldr	r3, .L25+4
 417 0026 1A60     		str	r2, [r3]
 587:Generated_Source\PSoC4/UART_UART.c **** 
 588:Generated_Source\PSoC4/UART_UART.c ****                 UART_EnableInt();
 418              		.loc 1 588 0
 419 0028 0B20     		movs	r0, #11
 420 002a FFF7FEFF 		bl	CyIntEnable
 421              	.LVL27:
 422              	.L24:
 589:Generated_Source\PSoC4/UART_UART.c ****             }
 590:Generated_Source\PSoC4/UART_UART.c ****             #endif
 591:Generated_Source\PSoC4/UART_UART.c ****         }
 592:Generated_Source\PSoC4/UART_UART.c **** 
 593:Generated_Source\PSoC4/UART_UART.c ****         /* Get and clear RX error mask */
 594:Generated_Source\PSoC4/UART_UART.c ****         tmpStatus = (UART_GetRxInterruptSource() & UART_INTR_RX_ERR);
 423              		.loc 1 594 0
 424 002e 064B     		ldr	r3, .L25+4
 425 0030 1868     		ldr	r0, [r3]
 426              	.LVL28:
 595:Generated_Source\PSoC4/UART_UART.c ****         UART_ClearRxInterruptSource(UART_INTR_RX_ERR);
 427              		.loc 1 595 0
 428 0032 D822     		movs	r2, #216
 429 0034 9200     		lsls	r2, r2, #2
ARM GAS  C:\Users\Kyle\AppData\Local\Temp\ccKSi1be.s 			page 19


 430 0036 1A60     		str	r2, [r3]
 596:Generated_Source\PSoC4/UART_UART.c **** 
 597:Generated_Source\PSoC4/UART_UART.c ****         /* Puts together data and error status:
 598:Generated_Source\PSoC4/UART_UART.c ****         * MP mode and accept address: 9th bit is set to notify mark.
 599:Generated_Source\PSoC4/UART_UART.c ****         */
 600:Generated_Source\PSoC4/UART_UART.c ****         rxData |= ((uint32) (tmpStatus << 8u));
 431              		.loc 1 600 0
 432 0038 0002     		lsls	r0, r0, #8
 433              	.LVL29:
 434 003a D823     		movs	r3, #216
 435 003c 9B02     		lsls	r3, r3, #10
 436 003e 1840     		ands	r0, r3
 437 0040 2043     		orrs	r0, r4
 438              	.LVL30:
 601:Generated_Source\PSoC4/UART_UART.c **** 
 602:Generated_Source\PSoC4/UART_UART.c ****         return (rxData);
 603:Generated_Source\PSoC4/UART_UART.c ****     }
 439              		.loc 1 603 0
 440              		@ sp needed
 441 0042 10BD     		pop	{r4, pc}
 442              	.L26:
 443              		.align	2
 444              	.L25:
 445 0044 40032740 		.word	1076298560
 446 0048 C00F2740 		.word	1076301760
 447              		.cfi_endproc
 448              	.LFE7:
 449              		.size	UART_UartGetByte, .-UART_UartGetByte
 450              		.section	.text.UART_UartSetRtsPolarity,"ax",%progbits
 451              		.align	2
 452              		.global	UART_UartSetRtsPolarity
 453              		.code	16
 454              		.thumb_func
 455              		.type	UART_UartSetRtsPolarity, %function
 456              	UART_UartSetRtsPolarity:
 457              	.LFB8:
 604:Generated_Source\PSoC4/UART_UART.c **** 
 605:Generated_Source\PSoC4/UART_UART.c **** 
 606:Generated_Source\PSoC4/UART_UART.c ****     #if !(UART_CY_SCBIP_V0 || UART_CY_SCBIP_V1)
 607:Generated_Source\PSoC4/UART_UART.c ****         /*******************************************************************************
 608:Generated_Source\PSoC4/UART_UART.c ****         * Function Name: UART_UartSetRtsPolarity
 609:Generated_Source\PSoC4/UART_UART.c ****         ****************************************************************************//**
 610:Generated_Source\PSoC4/UART_UART.c ****         *
 611:Generated_Source\PSoC4/UART_UART.c ****         *  Sets active polarity of RTS output signal.
 612:Generated_Source\PSoC4/UART_UART.c ****         *  Only available for PSoC 4100 BLE / PSoC 4200 BLE / PSoC 4100M / PSoC 4200M /
 613:Generated_Source\PSoC4/UART_UART.c ****         *  PSoC 4200L / PSoC 4000S / PSoC 4100S / PSoC Analog Coprocessor devices.
 614:Generated_Source\PSoC4/UART_UART.c ****         *
 615:Generated_Source\PSoC4/UART_UART.c ****         *  \param polarity: Active polarity of RTS output signal.
 616:Generated_Source\PSoC4/UART_UART.c ****         *   - UART_UART_RTS_ACTIVE_LOW  - RTS signal is active low.
 617:Generated_Source\PSoC4/UART_UART.c ****         *   - UART_UART_RTS_ACTIVE_HIGH - RTS signal is active high.
 618:Generated_Source\PSoC4/UART_UART.c ****         *
 619:Generated_Source\PSoC4/UART_UART.c ****         *******************************************************************************/
 620:Generated_Source\PSoC4/UART_UART.c ****         void UART_UartSetRtsPolarity(uint32 polarity)
 621:Generated_Source\PSoC4/UART_UART.c ****         {
 458              		.loc 1 621 0
 459              		.cfi_startproc
 460              		@ args = 0, pretend = 0, frame = 0
ARM GAS  C:\Users\Kyle\AppData\Local\Temp\ccKSi1be.s 			page 20


 461              		@ frame_needed = 0, uses_anonymous_args = 0
 462              		@ link register save eliminated.
 463              	.LVL31:
 622:Generated_Source\PSoC4/UART_UART.c ****             if(0u != polarity)
 464              		.loc 1 622 0
 465 0000 0028     		cmp	r0, #0
 466 0002 06D0     		beq	.L28
 623:Generated_Source\PSoC4/UART_UART.c ****             {
 624:Generated_Source\PSoC4/UART_UART.c ****                 UART_UART_FLOW_CTRL_REG |= (uint32)  UART_UART_FLOW_CTRL_RTS_POLARITY;
 467              		.loc 1 624 0
 468 0004 064A     		ldr	r2, .L30
 469 0006 1368     		ldr	r3, [r2]
 470 0008 8021     		movs	r1, #128
 471 000a 4902     		lsls	r1, r1, #9
 472 000c 0B43     		orrs	r3, r1
 473 000e 1360     		str	r3, [r2]
 474 0010 04E0     		b	.L27
 475              	.L28:
 625:Generated_Source\PSoC4/UART_UART.c ****             }
 626:Generated_Source\PSoC4/UART_UART.c ****             else
 627:Generated_Source\PSoC4/UART_UART.c ****             {
 628:Generated_Source\PSoC4/UART_UART.c ****                 UART_UART_FLOW_CTRL_REG &= (uint32) ~UART_UART_FLOW_CTRL_RTS_POLARITY;
 476              		.loc 1 628 0
 477 0012 034A     		ldr	r2, .L30
 478 0014 1168     		ldr	r1, [r2]
 479 0016 034B     		ldr	r3, .L30+4
 480 0018 0B40     		ands	r3, r1
 481 001a 1360     		str	r3, [r2]
 482              	.L27:
 629:Generated_Source\PSoC4/UART_UART.c ****             }
 630:Generated_Source\PSoC4/UART_UART.c ****         }
 483              		.loc 1 630 0
 484              		@ sp needed
 485 001c 7047     		bx	lr
 486              	.L31:
 487 001e C046     		.align	2
 488              	.L30:
 489 0020 50002740 		.word	1076297808
 490 0024 FFFFFEFF 		.word	-65537
 491              		.cfi_endproc
 492              	.LFE8:
 493              		.size	UART_UartSetRtsPolarity, .-UART_UartSetRtsPolarity
 494              		.section	.text.UART_UartSetRtsFifoLevel,"ax",%progbits
 495              		.align	2
 496              		.global	UART_UartSetRtsFifoLevel
 497              		.code	16
 498              		.thumb_func
 499              		.type	UART_UartSetRtsFifoLevel, %function
 500              	UART_UartSetRtsFifoLevel:
 501              	.LFB9:
 631:Generated_Source\PSoC4/UART_UART.c **** 
 632:Generated_Source\PSoC4/UART_UART.c **** 
 633:Generated_Source\PSoC4/UART_UART.c ****         /*******************************************************************************
 634:Generated_Source\PSoC4/UART_UART.c ****         * Function Name: UART_UartSetRtsFifoLevel
 635:Generated_Source\PSoC4/UART_UART.c ****         ****************************************************************************//**
 636:Generated_Source\PSoC4/UART_UART.c ****         *
 637:Generated_Source\PSoC4/UART_UART.c ****         *  Sets level in the RX FIFO for RTS signal activation.
ARM GAS  C:\Users\Kyle\AppData\Local\Temp\ccKSi1be.s 			page 21


 638:Generated_Source\PSoC4/UART_UART.c ****         *  While the RX FIFO has fewer entries than the RX FIFO level the RTS signal
 639:Generated_Source\PSoC4/UART_UART.c ****         *  remains active, otherwise the RTS signal becomes inactive.
 640:Generated_Source\PSoC4/UART_UART.c ****         *  Only available for PSoC 4100 BLE / PSoC 4200 BLE / PSoC 4100M / PSoC 4200M /
 641:Generated_Source\PSoC4/UART_UART.c ****         *  PSoC 4200L / PSoC 4000S / PSoC 4100S / PSoC Analog Coprocessor devices.
 642:Generated_Source\PSoC4/UART_UART.c ****         *
 643:Generated_Source\PSoC4/UART_UART.c ****         *  \param level: Level in the RX FIFO for RTS signal activation.
 644:Generated_Source\PSoC4/UART_UART.c ****         *   The range of valid level values is between 0 and RX FIFO depth - 1.
 645:Generated_Source\PSoC4/UART_UART.c ****         *   Setting level value to 0 disables RTS signal activation.
 646:Generated_Source\PSoC4/UART_UART.c ****         *
 647:Generated_Source\PSoC4/UART_UART.c ****         *******************************************************************************/
 648:Generated_Source\PSoC4/UART_UART.c ****         void UART_UartSetRtsFifoLevel(uint32 level)
 649:Generated_Source\PSoC4/UART_UART.c ****         {
 502              		.loc 1 649 0
 503              		.cfi_startproc
 504              		@ args = 0, pretend = 0, frame = 0
 505              		@ frame_needed = 0, uses_anonymous_args = 0
 506              		@ link register save eliminated.
 507              	.LVL32:
 650:Generated_Source\PSoC4/UART_UART.c ****             uint32 uartFlowCtrl;
 651:Generated_Source\PSoC4/UART_UART.c **** 
 652:Generated_Source\PSoC4/UART_UART.c ****             uartFlowCtrl = UART_UART_FLOW_CTRL_REG;
 508              		.loc 1 652 0
 509 0000 034A     		ldr	r2, .L33
 510 0002 1368     		ldr	r3, [r2]
 511              	.LVL33:
 653:Generated_Source\PSoC4/UART_UART.c **** 
 654:Generated_Source\PSoC4/UART_UART.c ****             uartFlowCtrl &= ((uint32) ~UART_UART_FLOW_CTRL_TRIGGER_LEVEL_MASK); /* Clear level mask
 512              		.loc 1 654 0
 513 0004 0F21     		movs	r1, #15
 514 0006 8B43     		bics	r3, r1
 515              	.LVL34:
 655:Generated_Source\PSoC4/UART_UART.c ****             uartFlowCtrl |= ((uint32) (UART_UART_FLOW_CTRL_TRIGGER_LEVEL_MASK & level));
 516              		.loc 1 655 0
 517 0008 0840     		ands	r0, r1
 518              	.LVL35:
 519 000a 1843     		orrs	r0, r3
 520              	.LVL36:
 656:Generated_Source\PSoC4/UART_UART.c **** 
 657:Generated_Source\PSoC4/UART_UART.c ****             UART_UART_FLOW_CTRL_REG = uartFlowCtrl;
 521              		.loc 1 657 0
 522 000c 1060     		str	r0, [r2]
 658:Generated_Source\PSoC4/UART_UART.c ****         }
 523              		.loc 1 658 0
 524              		@ sp needed
 525 000e 7047     		bx	lr
 526              	.L34:
 527              		.align	2
 528              	.L33:
 529 0010 50002740 		.word	1076297808
 530              		.cfi_endproc
 531              	.LFE9:
 532              		.size	UART_UartSetRtsFifoLevel, .-UART_UartSetRtsFifoLevel
 533              		.section	.text.UART_UartPutString,"ax",%progbits
 534              		.align	2
 535              		.global	UART_UartPutString
 536              		.code	16
 537              		.thumb_func
ARM GAS  C:\Users\Kyle\AppData\Local\Temp\ccKSi1be.s 			page 22


 538              		.type	UART_UartPutString, %function
 539              	UART_UartPutString:
 540              	.LFB10:
 659:Generated_Source\PSoC4/UART_UART.c ****     #endif /* !(UART_CY_SCBIP_V0 || UART_CY_SCBIP_V1) */
 660:Generated_Source\PSoC4/UART_UART.c **** 
 661:Generated_Source\PSoC4/UART_UART.c **** #endif /* (UART_UART_RX_DIRECTION) */
 662:Generated_Source\PSoC4/UART_UART.c **** 
 663:Generated_Source\PSoC4/UART_UART.c **** 
 664:Generated_Source\PSoC4/UART_UART.c **** #if(UART_UART_TX_DIRECTION)
 665:Generated_Source\PSoC4/UART_UART.c ****     /*******************************************************************************
 666:Generated_Source\PSoC4/UART_UART.c ****     * Function Name: UART_UartPutString
 667:Generated_Source\PSoC4/UART_UART.c ****     ****************************************************************************//**
 668:Generated_Source\PSoC4/UART_UART.c ****     *
 669:Generated_Source\PSoC4/UART_UART.c ****     *  Places a NULL terminated string in the transmit buffer to be sent at the
 670:Generated_Source\PSoC4/UART_UART.c ****     *  next available bus time.
 671:Generated_Source\PSoC4/UART_UART.c ****     *  This function is blocking and waits until there is a space available to put
 672:Generated_Source\PSoC4/UART_UART.c ****     *  requested data in transmit buffer.
 673:Generated_Source\PSoC4/UART_UART.c ****     *
 674:Generated_Source\PSoC4/UART_UART.c ****     *  \param string: pointer to the null terminated string array to be placed in the
 675:Generated_Source\PSoC4/UART_UART.c ****     *   transmit buffer.
 676:Generated_Source\PSoC4/UART_UART.c ****     *
 677:Generated_Source\PSoC4/UART_UART.c ****     *******************************************************************************/
 678:Generated_Source\PSoC4/UART_UART.c ****     void UART_UartPutString(const char8 string[])
 679:Generated_Source\PSoC4/UART_UART.c ****     {
 541              		.loc 1 679 0
 542              		.cfi_startproc
 543              		@ args = 0, pretend = 0, frame = 0
 544              		@ frame_needed = 0, uses_anonymous_args = 0
 545              	.LVL37:
 546 0000 70B5     		push	{r4, r5, r6, lr}
 547              		.cfi_def_cfa_offset 16
 548              		.cfi_offset 4, -16
 549              		.cfi_offset 5, -12
 550              		.cfi_offset 6, -8
 551              		.cfi_offset 14, -4
 552 0002 0500     		movs	r5, r0
 553              	.LVL38:
 680:Generated_Source\PSoC4/UART_UART.c ****         uint32 bufIndex;
 681:Generated_Source\PSoC4/UART_UART.c **** 
 682:Generated_Source\PSoC4/UART_UART.c ****         bufIndex = 0u;
 554              		.loc 1 682 0
 555 0004 0024     		movs	r4, #0
 683:Generated_Source\PSoC4/UART_UART.c **** 
 684:Generated_Source\PSoC4/UART_UART.c ****         /* Blocks the control flow until all data has been sent */
 685:Generated_Source\PSoC4/UART_UART.c ****         while(string[bufIndex] != ((char8) 0))
 556              		.loc 1 685 0
 557 0006 02E0     		b	.L36
 558              	.LVL39:
 559              	.L37:
 686:Generated_Source\PSoC4/UART_UART.c ****         {
 687:Generated_Source\PSoC4/UART_UART.c ****             UART_UartPutChar((uint32) string[bufIndex]);
 560              		.loc 1 687 0
 561 0008 FFF7FEFF 		bl	UART_SpiUartWriteTxData
 562              	.LVL40:
 688:Generated_Source\PSoC4/UART_UART.c ****             bufIndex++;
 563              		.loc 1 688 0
 564 000c 0134     		adds	r4, r4, #1
ARM GAS  C:\Users\Kyle\AppData\Local\Temp\ccKSi1be.s 			page 23


 565              	.LVL41:
 566              	.L36:
 685:Generated_Source\PSoC4/UART_UART.c ****         {
 567              		.loc 1 685 0
 568 000e 285D     		ldrb	r0, [r5, r4]
 569 0010 0028     		cmp	r0, #0
 570 0012 F9D1     		bne	.L37
 689:Generated_Source\PSoC4/UART_UART.c ****         }
 690:Generated_Source\PSoC4/UART_UART.c ****     }
 571              		.loc 1 690 0
 572              		@ sp needed
 573              	.LVL42:
 574              	.LVL43:
 575 0014 70BD     		pop	{r4, r5, r6, pc}
 576              		.cfi_endproc
 577              	.LFE10:
 578              		.size	UART_UartPutString, .-UART_UartPutString
 579 0016 C046     		.section	.text.UART_UartPutCRLF,"ax",%progbits
 580              		.align	2
 581              		.global	UART_UartPutCRLF
 582              		.code	16
 583              		.thumb_func
 584              		.type	UART_UartPutCRLF, %function
 585              	UART_UartPutCRLF:
 586              	.LFB11:
 691:Generated_Source\PSoC4/UART_UART.c **** 
 692:Generated_Source\PSoC4/UART_UART.c **** 
 693:Generated_Source\PSoC4/UART_UART.c ****     /*******************************************************************************
 694:Generated_Source\PSoC4/UART_UART.c ****     * Function Name: UART_UartPutCRLF
 695:Generated_Source\PSoC4/UART_UART.c ****     ****************************************************************************//**
 696:Generated_Source\PSoC4/UART_UART.c ****     *
 697:Generated_Source\PSoC4/UART_UART.c ****     *  Places byte of data followed by a carriage return (0x0D) and line feed
 698:Generated_Source\PSoC4/UART_UART.c ****     *  (0x0A) in the transmit buffer.
 699:Generated_Source\PSoC4/UART_UART.c ****     *  This function is blocking and waits until there is a space available to put
 700:Generated_Source\PSoC4/UART_UART.c ****     *  all requested data in transmit buffer.
 701:Generated_Source\PSoC4/UART_UART.c ****     *
 702:Generated_Source\PSoC4/UART_UART.c ****     *  \param txDataByte: the data to be transmitted.
 703:Generated_Source\PSoC4/UART_UART.c ****     *
 704:Generated_Source\PSoC4/UART_UART.c ****     *******************************************************************************/
 705:Generated_Source\PSoC4/UART_UART.c ****     void UART_UartPutCRLF(uint32 txDataByte)
 706:Generated_Source\PSoC4/UART_UART.c ****     {
 587              		.loc 1 706 0
 588              		.cfi_startproc
 589              		@ args = 0, pretend = 0, frame = 0
 590              		@ frame_needed = 0, uses_anonymous_args = 0
 591              	.LVL44:
 592 0000 10B5     		push	{r4, lr}
 593              		.cfi_def_cfa_offset 8
 594              		.cfi_offset 4, -8
 595              		.cfi_offset 14, -4
 707:Generated_Source\PSoC4/UART_UART.c ****         UART_UartPutChar(txDataByte);  /* Blocks control flow until all data has been sent */
 596              		.loc 1 707 0
 597 0002 FFF7FEFF 		bl	UART_SpiUartWriteTxData
 598              	.LVL45:
 708:Generated_Source\PSoC4/UART_UART.c ****         UART_UartPutChar(0x0Du);       /* Blocks control flow until all data has been sent */
 599              		.loc 1 708 0
 600 0006 0D20     		movs	r0, #13
ARM GAS  C:\Users\Kyle\AppData\Local\Temp\ccKSi1be.s 			page 24


 601 0008 FFF7FEFF 		bl	UART_SpiUartWriteTxData
 602              	.LVL46:
 709:Generated_Source\PSoC4/UART_UART.c ****         UART_UartPutChar(0x0Au);       /* Blocks control flow until all data has been sent */
 603              		.loc 1 709 0
 604 000c 0A20     		movs	r0, #10
 605 000e FFF7FEFF 		bl	UART_SpiUartWriteTxData
 606              	.LVL47:
 710:Generated_Source\PSoC4/UART_UART.c ****     }
 607              		.loc 1 710 0
 608              		@ sp needed
 609 0012 10BD     		pop	{r4, pc}
 610              		.cfi_endproc
 611              	.LFE11:
 612              		.size	UART_UartPutCRLF, .-UART_UartPutCRLF
 613              		.section	.text.UART_UartEnableCts,"ax",%progbits
 614              		.align	2
 615              		.global	UART_UartEnableCts
 616              		.code	16
 617              		.thumb_func
 618              		.type	UART_UartEnableCts, %function
 619              	UART_UartEnableCts:
 620              	.LFB12:
 711:Generated_Source\PSoC4/UART_UART.c **** 
 712:Generated_Source\PSoC4/UART_UART.c **** 
 713:Generated_Source\PSoC4/UART_UART.c ****     #if !(UART_CY_SCBIP_V0 || UART_CY_SCBIP_V1)
 714:Generated_Source\PSoC4/UART_UART.c ****         /*******************************************************************************
 715:Generated_Source\PSoC4/UART_UART.c ****         * Function Name: UARTSCB_UartEnableCts
 716:Generated_Source\PSoC4/UART_UART.c ****         ****************************************************************************//**
 717:Generated_Source\PSoC4/UART_UART.c ****         *
 718:Generated_Source\PSoC4/UART_UART.c ****         *  Enables usage of CTS input signal by the UART transmitter.
 719:Generated_Source\PSoC4/UART_UART.c ****         *  Only available for PSoC 4100 BLE / PSoC 4200 BLE / PSoC 4100M / PSoC 4200M /
 720:Generated_Source\PSoC4/UART_UART.c ****         *  PSoC 4200L / PSoC 4000S / PSoC 4100S / PSoC Analog Coprocessor devices.
 721:Generated_Source\PSoC4/UART_UART.c ****         *
 722:Generated_Source\PSoC4/UART_UART.c ****         *******************************************************************************/
 723:Generated_Source\PSoC4/UART_UART.c ****         void UART_UartEnableCts(void)
 724:Generated_Source\PSoC4/UART_UART.c ****         {
 621              		.loc 1 724 0
 622              		.cfi_startproc
 623              		@ args = 0, pretend = 0, frame = 0
 624              		@ frame_needed = 0, uses_anonymous_args = 0
 625              		@ link register save eliminated.
 725:Generated_Source\PSoC4/UART_UART.c ****             UART_UART_FLOW_CTRL_REG |= (uint32)  UART_UART_FLOW_CTRL_CTS_ENABLE;
 626              		.loc 1 725 0
 627 0000 034A     		ldr	r2, .L40
 628 0002 1368     		ldr	r3, [r2]
 629 0004 8021     		movs	r1, #128
 630 0006 8904     		lsls	r1, r1, #18
 631 0008 0B43     		orrs	r3, r1
 632 000a 1360     		str	r3, [r2]
 726:Generated_Source\PSoC4/UART_UART.c ****         }
 633              		.loc 1 726 0
 634              		@ sp needed
 635 000c 7047     		bx	lr
 636              	.L41:
 637 000e C046     		.align	2
 638              	.L40:
 639 0010 50002740 		.word	1076297808
ARM GAS  C:\Users\Kyle\AppData\Local\Temp\ccKSi1be.s 			page 25


 640              		.cfi_endproc
 641              	.LFE12:
 642              		.size	UART_UartEnableCts, .-UART_UartEnableCts
 643              		.section	.text.UART_UartDisableCts,"ax",%progbits
 644              		.align	2
 645              		.global	UART_UartDisableCts
 646              		.code	16
 647              		.thumb_func
 648              		.type	UART_UartDisableCts, %function
 649              	UART_UartDisableCts:
 650              	.LFB13:
 727:Generated_Source\PSoC4/UART_UART.c **** 
 728:Generated_Source\PSoC4/UART_UART.c **** 
 729:Generated_Source\PSoC4/UART_UART.c ****         /*******************************************************************************
 730:Generated_Source\PSoC4/UART_UART.c ****         * Function Name: UART_UartDisableCts
 731:Generated_Source\PSoC4/UART_UART.c ****         ****************************************************************************//**
 732:Generated_Source\PSoC4/UART_UART.c ****         *
 733:Generated_Source\PSoC4/UART_UART.c ****         *  Disables usage of CTS input signal by the UART transmitter.
 734:Generated_Source\PSoC4/UART_UART.c ****         *  Only available for PSoC 4100 BLE / PSoC 4200 BLE / PSoC 4100M / PSoC 4200M /
 735:Generated_Source\PSoC4/UART_UART.c ****         *  PSoC 4200L / PSoC 4000S / PSoC 4100S / PSoC Analog Coprocessor devices.
 736:Generated_Source\PSoC4/UART_UART.c ****         *
 737:Generated_Source\PSoC4/UART_UART.c ****         *******************************************************************************/
 738:Generated_Source\PSoC4/UART_UART.c ****         void UART_UartDisableCts(void)
 739:Generated_Source\PSoC4/UART_UART.c ****         {
 651              		.loc 1 739 0
 652              		.cfi_startproc
 653              		@ args = 0, pretend = 0, frame = 0
 654              		@ frame_needed = 0, uses_anonymous_args = 0
 655              		@ link register save eliminated.
 740:Generated_Source\PSoC4/UART_UART.c ****             UART_UART_FLOW_CTRL_REG &= (uint32) ~UART_UART_FLOW_CTRL_CTS_ENABLE;
 656              		.loc 1 740 0
 657 0000 024A     		ldr	r2, .L43
 658 0002 1168     		ldr	r1, [r2]
 659 0004 024B     		ldr	r3, .L43+4
 660 0006 0B40     		ands	r3, r1
 661 0008 1360     		str	r3, [r2]
 741:Generated_Source\PSoC4/UART_UART.c ****         }
 662              		.loc 1 741 0
 663              		@ sp needed
 664 000a 7047     		bx	lr
 665              	.L44:
 666              		.align	2
 667              	.L43:
 668 000c 50002740 		.word	1076297808
 669 0010 FFFFFFFD 		.word	-33554433
 670              		.cfi_endproc
 671              	.LFE13:
 672              		.size	UART_UartDisableCts, .-UART_UartDisableCts
 673              		.section	.text.UART_UartSetCtsPolarity,"ax",%progbits
 674              		.align	2
 675              		.global	UART_UartSetCtsPolarity
 676              		.code	16
 677              		.thumb_func
 678              		.type	UART_UartSetCtsPolarity, %function
 679              	UART_UartSetCtsPolarity:
 680              	.LFB14:
 742:Generated_Source\PSoC4/UART_UART.c **** 
ARM GAS  C:\Users\Kyle\AppData\Local\Temp\ccKSi1be.s 			page 26


 743:Generated_Source\PSoC4/UART_UART.c **** 
 744:Generated_Source\PSoC4/UART_UART.c ****         /*******************************************************************************
 745:Generated_Source\PSoC4/UART_UART.c ****         * Function Name: UART_UartSetCtsPolarity
 746:Generated_Source\PSoC4/UART_UART.c ****         ****************************************************************************//**
 747:Generated_Source\PSoC4/UART_UART.c ****         *
 748:Generated_Source\PSoC4/UART_UART.c ****         *  Sets active polarity of CTS input signal.
 749:Generated_Source\PSoC4/UART_UART.c ****         *  Only available for PSoC 4100 BLE / PSoC 4200 BLE / PSoC 4100M / PSoC 4200M /
 750:Generated_Source\PSoC4/UART_UART.c ****         *  PSoC 4200L / PSoC 4000S / PSoC 4100S / PSoC Analog Coprocessor devices.
 751:Generated_Source\PSoC4/UART_UART.c ****         *
 752:Generated_Source\PSoC4/UART_UART.c ****         *  \param polarity: Active polarity of CTS output signal.
 753:Generated_Source\PSoC4/UART_UART.c ****         *   - UART_UART_CTS_ACTIVE_LOW  - CTS signal is active low.
 754:Generated_Source\PSoC4/UART_UART.c ****         *   - UART_UART_CTS_ACTIVE_HIGH - CTS signal is active high.
 755:Generated_Source\PSoC4/UART_UART.c ****         *
 756:Generated_Source\PSoC4/UART_UART.c ****         *******************************************************************************/
 757:Generated_Source\PSoC4/UART_UART.c ****         void UART_UartSetCtsPolarity(uint32 polarity)
 758:Generated_Source\PSoC4/UART_UART.c ****         {
 681              		.loc 1 758 0
 682              		.cfi_startproc
 683              		@ args = 0, pretend = 0, frame = 0
 684              		@ frame_needed = 0, uses_anonymous_args = 0
 685              		@ link register save eliminated.
 686              	.LVL48:
 759:Generated_Source\PSoC4/UART_UART.c ****             if (0u != polarity)
 687              		.loc 1 759 0
 688 0000 0028     		cmp	r0, #0
 689 0002 06D0     		beq	.L46
 760:Generated_Source\PSoC4/UART_UART.c ****             {
 761:Generated_Source\PSoC4/UART_UART.c ****                 UART_UART_FLOW_CTRL_REG |= (uint32)  UART_UART_FLOW_CTRL_CTS_POLARITY;
 690              		.loc 1 761 0
 691 0004 064A     		ldr	r2, .L48
 692 0006 1368     		ldr	r3, [r2]
 693 0008 8021     		movs	r1, #128
 694 000a 4904     		lsls	r1, r1, #17
 695 000c 0B43     		orrs	r3, r1
 696 000e 1360     		str	r3, [r2]
 697 0010 04E0     		b	.L45
 698              	.L46:
 762:Generated_Source\PSoC4/UART_UART.c ****             }
 763:Generated_Source\PSoC4/UART_UART.c ****             else
 764:Generated_Source\PSoC4/UART_UART.c ****             {
 765:Generated_Source\PSoC4/UART_UART.c ****                 UART_UART_FLOW_CTRL_REG &= (uint32) ~UART_UART_FLOW_CTRL_CTS_POLARITY;
 699              		.loc 1 765 0
 700 0012 034A     		ldr	r2, .L48
 701 0014 1168     		ldr	r1, [r2]
 702 0016 034B     		ldr	r3, .L48+4
 703 0018 0B40     		ands	r3, r1
 704 001a 1360     		str	r3, [r2]
 705              	.L45:
 766:Generated_Source\PSoC4/UART_UART.c ****             }
 767:Generated_Source\PSoC4/UART_UART.c ****         }
 706              		.loc 1 767 0
 707              		@ sp needed
 708 001c 7047     		bx	lr
 709              	.L49:
 710 001e C046     		.align	2
 711              	.L48:
 712 0020 50002740 		.word	1076297808
ARM GAS  C:\Users\Kyle\AppData\Local\Temp\ccKSi1be.s 			page 27


 713 0024 FFFFFFFE 		.word	-16777217
 714              		.cfi_endproc
 715              	.LFE14:
 716              		.size	UART_UartSetCtsPolarity, .-UART_UartSetCtsPolarity
 717              		.text
 718              	.Letext0:
 719              		.file 2 "Generated_Source\\PSoC4/cytypes.h"
 720              		.file 3 "Generated_Source\\PSoC4\\UART_PVT.h"
 721              		.file 4 "Generated_Source\\PSoC4\\UART_SPI_UART_PVT.h"
 722              		.file 5 "Generated_Source\\PSoC4/CyLib.h"
 723              		.file 6 "Generated_Source\\PSoC4\\UART_SPI_UART.h"