ARM GAS  C:\Users\Kyle\AppData\Local\Temp\cc1qf4LT.s 			page 1


   1              		.syntax unified
   2              		.cpu cortex-m0
   3              		.fpu softvfp
   4              		.eabi_attribute 20, 1
   5              		.eabi_attribute 21, 1
   6              		.eabi_attribute 23, 3
   7              		.eabi_attribute 24, 1
   8              		.eabi_attribute 25, 1
   9              		.eabi_attribute 26, 1
  10              		.eabi_attribute 30, 1
  11              		.eabi_attribute 34, 0
  12              		.eabi_attribute 18, 4
  13              		.thumb
  14              		.syntax unified
  15              		.file	"usb_psoc4.c"
  16              		.text
  17              	.Ltext0:
  18              		.cfi_sections	.debug_frame
  19              		.section	.text.USB_Start,"ax",%progbits
  20              		.align	2
  21              		.global	USB_Start
  22              		.code	16
  23              		.thumb_func
  24              		.type	USB_Start, %function
  25              	USB_Start:
  26              	.LFB34:
  27              		.file 1 "usb_psoc4.c"
   1:usb_psoc4.c   **** /*********************************************************************************
   2:usb_psoc4.c   **** * File Name: usb_functions.c
   3:usb_psoc4.c   **** *
   4:usb_psoc4.c   **** * Description:
   5:usb_psoc4.c   **** *  Source code for the protocols used by the USB.
   6:usb_psoc4.c   **** *
   7:usb_psoc4.c   **** *
   8:usb_psoc4.c   **** **********************************************************************************
   9:usb_psoc4.c   ****  * Copyright Naresuan University, Phitsanulok Thailand
  10:usb_psoc4.c   **** *********************************************************************************/
  11:usb_psoc4.c   **** 
  12:usb_psoc4.c   **** 
  13:usb_psoc4.c   **** #include <project.h>
  14:usb_psoc4.c   **** #include "usb_psoc4.h"
  15:usb_psoc4.c   **** 
  16:usb_psoc4.c   **** #define True                        1
  17:usb_psoc4.c   **** #define False                       0
  18:usb_psoc4.c   **** 
  19:usb_psoc4.c   **** 
  20:usb_psoc4.c   **** /******************************************************************************
  21:usb_psoc4.c   **** * Function Name: USB_Start
  22:usb_psoc4.c   **** *******************************************************************************
  23:usb_psoc4.c   **** *
  24:usb_psoc4.c   **** * Summary:
  25:usb_psoc4.c   **** *  Power up the USB / UART of the CY8CKIT-044 so 
  26:usb_psoc4.c   **** *  the device can recieve instructions.
  27:usb_psoc4.c   **** *
  28:usb_psoc4.c   **** *******************************************************************************/
  29:usb_psoc4.c   **** 
  30:usb_psoc4.c   **** void USB_Start(void) {
ARM GAS  C:\Users\Kyle\AppData\Local\Temp\cc1qf4LT.s 			page 2


  28              		.loc 1 30 0
  29              		.cfi_startproc
  30              		@ args = 0, pretend = 0, frame = 0
  31              		@ frame_needed = 0, uses_anonymous_args = 0
  32 0000 10B5     		push	{r4, lr}
  33              		.cfi_def_cfa_offset 8
  34              		.cfi_offset 4, -8
  35              		.cfi_offset 14, -4
  31:usb_psoc4.c   ****     UART_Start();
  36              		.loc 1 31 0
  37 0002 FFF7FEFF 		bl	UART_Start
  38              	.LVL0:
  32:usb_psoc4.c   ****     
  33:usb_psoc4.c   **** }
  39              		.loc 1 33 0
  40              		@ sp needed
  41 0006 10BD     		pop	{r4, pc}
  42              		.cfi_endproc
  43              	.LFE34:
  44              		.size	USB_Start, .-USB_Start
  45              		.section	.text.USB_CheckInput,"ax",%progbits
  46              		.align	2
  47              		.global	USB_CheckInput
  48              		.code	16
  49              		.thumb_func
  50              		.type	USB_CheckInput, %function
  51              	USB_CheckInput:
  52              	.LFB35:
  34:usb_psoc4.c   ****     
  35:usb_psoc4.c   **** 
  36:usb_psoc4.c   **** /******************************************************************************
  37:usb_psoc4.c   **** * Function Name: USB_CheckInput
  38:usb_psoc4.c   **** *******************************************************************************
  39:usb_psoc4.c   **** *
  40:usb_psoc4.c   **** * Summary:
  41:usb_psoc4.c   **** *  Check if any incoming USB data and store it to the input buffer
  42:usb_psoc4.c   **** *
  43:usb_psoc4.c   **** * Parameters:
  44:usb_psoc4.c   **** *  uint8 buffer: array of where the data is stored
  45:usb_psoc4.c   **** *
  46:usb_psoc4.c   **** * Return:
  47:usb_psoc4.c   **** *  true (1) if data has been inputed or false (0) if no data
  48:usb_psoc4.c   **** *
  49:usb_psoc4.c   **** * Global variables:
  50:usb_psoc4.c   **** *  OUT_ENDPOINT:  number that is the endpoint coming out of the computer
  51:usb_psoc4.c   **** *
  52:usb_psoc4.c   **** *******************************************************************************/
  53:usb_psoc4.c   **** 
  54:usb_psoc4.c   **** uint8 USB_CheckInput(uint8 buffer[]) {
  53              		.loc 1 54 0
  54              		.cfi_startproc
  55              		@ args = 0, pretend = 0, frame = 0
  56              		@ frame_needed = 0, uses_anonymous_args = 0
  57              	.LVL1:
  58 0000 70B5     		push	{r4, r5, r6, lr}
  59              		.cfi_def_cfa_offset 16
  60              		.cfi_offset 4, -16
ARM GAS  C:\Users\Kyle\AppData\Local\Temp\cc1qf4LT.s 			page 3


  61              		.cfi_offset 5, -12
  62              		.cfi_offset 6, -8
  63              		.cfi_offset 14, -4
  64 0002 0600     		movs	r6, r0
  55:usb_psoc4.c   **** //    uint32 rxData;
  56:usb_psoc4.c   **** //    uint8 index = 0;
  57:usb_psoc4.c   **** //    // UART_UartPutString("Hello\r\n");
  58:usb_psoc4.c   **** //    do {
  59:usb_psoc4.c   **** //        rxData = UART_UartGetChar();
  60:usb_psoc4.c   **** //        //UART_UartPutChar(rxData);
  61:usb_psoc4.c   **** //        //buffer[index] = (rxData & 0x000000FF);
  62:usb_psoc4.c   **** //        buffer[index] = (uint8) rxData;
  63:usb_psoc4.c   **** //        index++;
  64:usb_psoc4.c   **** //    } while ( ( rxData != 0 ) | (index >= MAX_IN_ENDPOINT_BUFFER_SIZE) );
  65:usb_psoc4.c   **** //    
  66:usb_psoc4.c   **** //    if ( index > 1 ) {
  67:usb_psoc4.c   **** //        return True;
  68:usb_psoc4.c   **** //    }
  69:usb_psoc4.c   **** //    return False;
  70:usb_psoc4.c   ****     uint32 rxData;
  71:usb_psoc4.c   ****     
  72:usb_psoc4.c   ****     rxData = UART_UartGetChar();
  65              		.loc 1 72 0
  66 0004 FFF7FEFF 		bl	UART_UartGetChar
  67              	.LVL2:
  68 0008 051E     		subs	r5, r0, #0
  69              	.LVL3:
  73:usb_psoc4.c   ****     uint8 index = 0;
  74:usb_psoc4.c   ****     if (rxData != 0x00) {
  70              		.loc 1 74 0
  71 000a 17D0     		beq	.L8
  75:usb_psoc4.c   ****         Red_LED_Write(0);
  72              		.loc 1 75 0
  73 000c 0020     		movs	r0, #0
  74              	.LVL4:
  75 000e FFF7FEFF 		bl	Red_LED_Write
  76              	.LVL5:
  76:usb_psoc4.c   ****         Green_LED_Write(0);
  77              		.loc 1 76 0
  78 0012 0020     		movs	r0, #0
  79 0014 FFF7FEFF 		bl	Green_LED_Write
  80              	.LVL6:
  73:usb_psoc4.c   ****     uint8 index = 0;
  81              		.loc 1 73 0
  82 0018 0024     		movs	r4, #0
  77:usb_psoc4.c   ****         while ( (rxData != 0x00) && (index < MAX_IN_ENDPOINT_BUFFER_SIZE) && (rxData != 0x2D)) {
  83              		.loc 1 77 0
  84 001a 05E0     		b	.L4
  85              	.LVL7:
  86              	.L6:
  78:usb_psoc4.c   ****             //UART_UartPutChar(rxData);
  79:usb_psoc4.c   ****             buffer[index] = rxData;
  87              		.loc 1 79 0
  88 001c 3555     		strb	r5, [r6, r4]
  80:usb_psoc4.c   ****             rxData = UART_UartGetChar();
  89              		.loc 1 80 0
  90 001e FFF7FEFF 		bl	UART_UartGetChar
ARM GAS  C:\Users\Kyle\AppData\Local\Temp\cc1qf4LT.s 			page 4


  91              	.LVL8:
  92 0022 0500     		movs	r5, r0
  93              	.LVL9:
  81:usb_psoc4.c   ****             index++;
  94              		.loc 1 81 0
  95 0024 0134     		adds	r4, r4, #1
  96              	.LVL10:
  97 0026 E4B2     		uxtb	r4, r4
  98              	.LVL11:
  99              	.L4:
  77:usb_psoc4.c   ****             //UART_UartPutChar(rxData);
 100              		.loc 1 77 0
 101 0028 002D     		cmp	r5, #0
 102 002a 03D0     		beq	.L5
  77:usb_psoc4.c   ****             //UART_UartPutChar(rxData);
 103              		.loc 1 77 0 is_stmt 0 discriminator 1
 104 002c 272C     		cmp	r4, #39
 105 002e 01D8     		bhi	.L5
  77:usb_psoc4.c   ****             //UART_UartPutChar(rxData);
 106              		.loc 1 77 0 discriminator 2
 107 0030 2D2D     		cmp	r5, #45
 108 0032 F3D1     		bne	.L6
 109              	.L5:
  82:usb_psoc4.c   ****         }
  83:usb_psoc4.c   ****         Red_LED_Write(1);
 110              		.loc 1 83 0 is_stmt 1
 111 0034 0120     		movs	r0, #1
 112 0036 FFF7FEFF 		bl	Red_LED_Write
 113              	.LVL12:
 114 003a 00E0     		b	.L3
 115              	.LVL13:
 116              	.L8:
  73:usb_psoc4.c   ****     if (rxData != 0x00) {
 117              		.loc 1 73 0
 118 003c 0024     		movs	r4, #0
 119              	.LVL14:
 120              	.L3:
  84:usb_psoc4.c   ****     }
  85:usb_psoc4.c   ****     if (index > 0) {
 121              		.loc 1 85 0
 122 003e 002C     		cmp	r4, #0
 123 0040 01D0     		beq	.L9
  86:usb_psoc4.c   ****         return True;
 124              		.loc 1 86 0
 125 0042 0120     		movs	r0, #1
 126 0044 00E0     		b	.L7
 127              	.L9:
  87:usb_psoc4.c   ****     }
  88:usb_psoc4.c   ****     return False;  
 128              		.loc 1 88 0
 129 0046 0020     		movs	r0, #0
 130              	.L7:
  89:usb_psoc4.c   **** }
 131              		.loc 1 89 0
 132              		@ sp needed
 133              	.LVL15:
 134              	.LVL16:
ARM GAS  C:\Users\Kyle\AppData\Local\Temp\cc1qf4LT.s 			page 5


 135              	.LVL17:
 136 0048 70BD     		pop	{r4, r5, r6, pc}
 137              		.cfi_endproc
 138              	.LFE35:
 139              		.size	USB_CheckInput, .-USB_CheckInput
 140 004a C046     		.section	.text.USB_Export_Data,"ax",%progbits
 141              		.align	2
 142              		.global	USB_Export_Data
 143              		.code	16
 144              		.thumb_func
 145              		.type	USB_Export_Data, %function
 146              	USB_Export_Data:
 147              	.LFB36:
  90:usb_psoc4.c   ****     
  91:usb_psoc4.c   **** /******************************************************************************
  92:usb_psoc4.c   **** * Function Name: USB_Export_Data
  93:usb_psoc4.c   **** *************************************************************************************
  94:usb_psoc4.c   **** *
  95:usb_psoc4.c   **** * Summary:
  96:usb_psoc4.c   **** *  Take a buffer as input and export it, the size of bytes to send is also inputted
  97:usb_psoc4.c   **** *
  98:usb_psoc4.c   **** * Parameters:
  99:usb_psoc4.c   **** *  uint8 array array: array of data to export
 100:usb_psoc4.c   **** *  uint16 size: the number of bytes to send in the array
 101:usb_psoc4.c   **** *
 102:usb_psoc4.c   **** * Return:
 103:usb_psoc4.c   **** *  None
 104:usb_psoc4.c   **** *
 105:usb_psoc4.c   **** * Global variables:
 106:usb_psoc4.c   **** *  MAX_BUFFER_SIZE:  the number of bytes the UBS device can hold
 107:usb_psoc4.c   **** *
 108:usb_psoc4.c   **** *******************************************************************************************/
 109:usb_psoc4.c   **** 
 110:usb_psoc4.c   **** void USB_Export_Data(uint8 array[], uint16 size) {
 148              		.loc 1 110 0
 149              		.cfi_startproc
 150              		@ args = 0, pretend = 0, frame = 0
 151              		@ frame_needed = 0, uses_anonymous_args = 0
 152              	.LVL18:
 153 0000 70B5     		push	{r4, r5, r6, lr}
 154              		.cfi_def_cfa_offset 16
 155              		.cfi_offset 4, -16
 156              		.cfi_offset 5, -12
 157              		.cfi_offset 6, -8
 158              		.cfi_offset 14, -4
 159 0002 0600     		movs	r6, r0
 160 0004 0D00     		movs	r5, r1
 161              	.LVL19:
 162              	.LBB2:
 111:usb_psoc4.c   ****      for (int i=0; i < size; i++) {
 163              		.loc 1 111 0
 164 0006 0024     		movs	r4, #0
 165 0008 03E0     		b	.L11
 166              	.LVL20:
 167              	.L12:
 112:usb_psoc4.c   ****         UART_UartPutChar(array[i]);
 168              		.loc 1 112 0 discriminator 3
ARM GAS  C:\Users\Kyle\AppData\Local\Temp\cc1qf4LT.s 			page 6


 169 000a 305D     		ldrb	r0, [r6, r4]
 170 000c FFF7FEFF 		bl	UART_SpiUartWriteTxData
 171              	.LVL21:
 111:usb_psoc4.c   ****      for (int i=0; i < size; i++) {
 172              		.loc 1 111 0 discriminator 3
 173 0010 0134     		adds	r4, r4, #1
 174              	.LVL22:
 175              	.L11:
 111:usb_psoc4.c   ****      for (int i=0; i < size; i++) {
 176              		.loc 1 111 0 is_stmt 0 discriminator 1
 177 0012 AC42     		cmp	r4, r5
 178 0014 F9DB     		blt	.L12
 179              	.LBE2:
 113:usb_psoc4.c   ****     }
 114:usb_psoc4.c   ****     
 115:usb_psoc4.c   ****     //UART_UartPutString((char*) array);
 116:usb_psoc4.c   **** }    
 180              		.loc 1 116 0 is_stmt 1
 181              		@ sp needed
 182              	.LVL23:
 183              	.LVL24:
 184 0016 70BD     		pop	{r4, r5, r6, pc}
 185              		.cfi_endproc
 186              	.LFE36:
 187              		.size	USB_Export_Data, .-USB_Export_Data
 188              		.comm	USB_str,40,4
 189              		.comm	OUT_Data_Buffer,40,4
 190              		.text
 191              	.Letext0:
 192              		.file 2 "Generated_Source\\PSoC4/cytypes.h"
 193              		.file 3 "usb_psoc4.h"
 194              		.file 4 "Generated_Source\\PSoC4/UART.h"
 195              		.file 5 "Generated_Source\\PSoC4/UART_SPI_UART.h"
 196              		.file 6 "Generated_Source\\PSoC4/Red_LED.h"
 197              		.file 7 "Generated_Source\\PSoC4/Green_LED.h"