ARM GAS  C:\Users\kvl6\AppData\Local\Temp\ccDFWSTJ.s 			page 1


   1              		.syntax unified
   2              		.cpu cortex-m3
   3              		.fpu softvfp
   4              		.eabi_attribute 20, 1
   5              		.eabi_attribute 21, 1
   6              		.eabi_attribute 23, 3
   7              		.eabi_attribute 24, 1
   8              		.eabi_attribute 25, 1
   9              		.eabi_attribute 26, 1
  10              		.eabi_attribute 30, 1
  11              		.eabi_attribute 34, 1
  12              		.eabi_attribute 18, 4
  13              		.thumb
  14              		.syntax unified
  15              		.file	"AS7262.c"
  16              		.text
  17              	.Ltext0:
  18              		.cfi_sections	.debug_frame
  19              		.section	.text.isr_handler_basic_read,"ax",%progbits
  20              		.align	2
  21              		.global	isr_handler_basic_read
  22              		.thumb
  23              		.thumb_func
  24              		.type	isr_handler_basic_read, %function
  25              	isr_handler_basic_read:
  26              	.LFB64:
  27              		.file 1 "AS7262.c"
   1:AS7262.c      **** /*******************************************************************************
   2:AS7262.c      ****  * File Name: AS7262.c
   3:AS7262.c      ****  * Version 0.20
   4:AS7262.c      ****  *
   5:AS7262.c      ****  * Description:
   6:AS7262.c      ****  *  This file provides functions to control an AS7262 color sensor through the I2C.
   7:AS7262.c      ****  *  This file depends on i2c_functions to worik
   8:AS7262.c      ****  *
   9:AS7262.c      **** *******************************************************************************
  10:AS7262.c      ****  * Copyright by Kyle Lopin, Naresuan University, 2017
  11:AS7262.c      ****  * All Rights Reserved
  12:AS7262.c      ****  * UNPUBLISHED, LICENSED SOFTWARE.
  13:AS7262.c      ****  *
  14:AS7262.c      ****  * CONFIDENTIAL AND PROPRIETARY INFORMATION
  15:AS7262.c      ****  * WHICH IS THE PROPERTY OF Naresuan University.
  16:AS7262.c      ****  *
  17:AS7262.c      ****  * ========================================
  18:AS7262.c      **** */
  19:AS7262.c      **** 
  20:AS7262.c      **** #include "AS7262.h"
  21:AS7262.c      **** // standard libraries
  22:AS7262.c      **** #include "stdio.h"
  23:AS7262.c      **** // local files
  24:AS7262.c      **** #include "usb_functions.h"
  25:AS7262.c      **** 
  26:AS7262.c      **** #define AS72XX_SLAVE_STATUS_REG 0x00
  27:AS7262.c      **** #define AS72XX_SLAVE_WRITE_REG 0x01
  28:AS7262.c      **** #define AS72XX_SLAVE_READ_REG 0x02
  29:AS7262.c      **** #define AS72XX_SLAVE_TX_VALID   0x02
  30:AS7262.c      **** #define AS72XX_SLAVE_RX_VALID   0x01
ARM GAS  C:\Users\kvl6\AppData\Local\Temp\ccDFWSTJ.s 			page 2


  31:AS7262.c      **** uint8 read_buffer[24];
  32:AS7262.c      **** uint8 write_buffer[2];
  33:AS7262.c      **** 
  34:AS7262.c      **** /***************************************
  35:AS7262.c      **** *      Function Prototypes
  36:AS7262.c      **** ***************************************/
  37:AS7262.c      **** 
  38:AS7262.c      **** uint8 update_control_reg_value(AS7262_settings* as7262_ptr);
  39:AS7262.c      **** uint8 update_LED_reg_value(AS7262_settings* as7262_ptr);
  40:AS7262.c      **** 
  41:AS7262.c      **** uint8 virtual_reg_read(uint8 reg_addr);
  42:AS7262.c      **** uint8 I2C_AS7262_Read(uint8 reg_addr);
  43:AS7262.c      **** uint8 I2C_AS7262_ReadRegister(uint8 reg_addr);
  44:AS7262.c      **** uint8 I2C_AS7262_Write(uint8 reg_addr, uint8 value);
  45:AS7262.c      **** uint8 I2C_AS7262_WriteRegister(uint8 reg_addr, uint8 value);
  46:AS7262.c      **** void AS7262_ReadAllData(void);
  47:AS7262.c      **** uint8 convert_hex_string(uint8 array[]);
  48:AS7262.c      **** uint8 hex_value_from_char(uint8 _char);
  49:AS7262.c      **** uint16 ConvertDecimal(uint8 array[], uint8 len);
  50:AS7262.c      **** 
  51:AS7262.c      **** 
  52:AS7262.c      **** /***************************************
  53:AS7262.c      **** *      Initialize Structure to save 
  54:AS7262.c      **** *      settings of AS7262
  55:AS7262.c      **** ***************************************/
  56:AS7262.c      **** 
  57:AS7262.c      **** AS7262_settings as7262 = {
  58:AS7262.c      ****     .measurement_mode = BANK_MODE_3,
  59:AS7262.c      ****     .gain = GAIN_SETTING_1X,
  60:AS7262.c      ****     .interrupt_on = True,
  61:AS7262.c      ****     .integration_time = 255,
  62:AS7262.c      ****     .LED_power_level = LED_POWER_12_5_mA,
  63:AS7262.c      ****     .LED_on = False,
  64:AS7262.c      ****     .indicator_power_level = INDICATOR_POWER_4_mA,
  65:AS7262.c      ****     .indicator_on = False
  66:AS7262.c      **** };
  67:AS7262.c      **** 
  68:AS7262.c      **** 
  69:AS7262.c      **** 
  70:AS7262.c      **** union CalibratedData {
  71:AS7262.c      ****     uint8 data_bytes[24];
  72:AS7262.c      ****     float32 calibrated_data[6];
  73:AS7262.c      **** };
  74:AS7262.c      **** 
  75:AS7262.c      **** union CalibratedData all_calibrated_data;
  76:AS7262.c      **** 
  77:AS7262.c      **** float32 color_data[6];
  78:AS7262.c      **** extern char LCD_str[40];
  79:AS7262.c      **** 
  80:AS7262.c      **** 
  81:AS7262.c      **** CY_ISR( isr_handler_basic_read ) {
  28              		.loc 1 81 0
  29              		.cfi_startproc
  30              		@ args = 0, pretend = 0, frame = 0
  31              		@ frame_needed = 0, uses_anonymous_args = 0
  32 0000 08B5     		push	{r3, lr}
  33              		.cfi_def_cfa_offset 8
ARM GAS  C:\Users\kvl6\AppData\Local\Temp\ccDFWSTJ.s 			page 3


  34              		.cfi_offset 3, -8
  35              		.cfi_offset 14, -4
  82:AS7262.c      ****     LED_4_Write( 0 );
  36              		.loc 1 82 0
  37 0002 0020     		movs	r0, #0
  38 0004 FFF7FEFF 		bl	LED_4_Write
  39              	.LVL0:
  83:AS7262.c      ****     LCD_Position(1, 0);
  40              		.loc 1 83 0
  41 0008 0021     		movs	r1, #0
  42 000a 0120     		movs	r0, #1
  43 000c FFF7FEFF 		bl	LCD_Position
  44              	.LVL1:
  84:AS7262.c      ****     LCD_PrintString("SingleRead3a ");
  45              		.loc 1 84 0
  46 0010 0648     		ldr	r0, .L3
  47 0012 FFF7FEFF 		bl	LCD_PrintString
  48              	.LVL2:
  85:AS7262.c      ****     // isr_as7262_int_Disable();
  86:AS7262.c      ****     AS7262_INT_ClearInterrupt();
  49              		.loc 1 86 0
  50 0016 FFF7FEFF 		bl	AS7262_INT_ClearInterrupt
  51              	.LVL3:
  87:AS7262.c      ****     LCD_Position(1, 0);
  52              		.loc 1 87 0
  53 001a 0021     		movs	r1, #0
  54 001c 0120     		movs	r0, #1
  55 001e FFF7FEFF 		bl	LCD_Position
  56              	.LVL4:
  88:AS7262.c      ****     LCD_PrintString("SingleRead3b ");
  57              		.loc 1 88 0
  58 0022 0348     		ldr	r0, .L3+4
  59 0024 FFF7FEFF 		bl	LCD_PrintString
  60              	.LVL5:
  61 0028 08BD     		pop	{r3, pc}
  62              	.L4:
  63 002a 00BF     		.align	2
  64              	.L3:
  65 002c 00000000 		.word	.LC0
  66 0030 10000000 		.word	.LC1
  67              		.cfi_endproc
  68              	.LFE64:
  69              		.size	isr_handler_basic_read, .-isr_handler_basic_read
  70              		.section	.text.isr_handler_debug1,"ax",%progbits
  71              		.align	2
  72              		.global	isr_handler_debug1
  73              		.thumb
  74              		.thumb_func
  75              		.type	isr_handler_debug1, %function
  76              	isr_handler_debug1:
  77              	.LFB65:
  89:AS7262.c      **** //    AS7262_ReadAllData();
  90:AS7262.c      **** //    LCD_Position(1, 0);
  91:AS7262.c      **** //    LCD_PrintString("SingleRead4 ");
  92:AS7262.c      **** //    USB_Export_Data(all_calibrated_data.data_bytes, 24);
  93:AS7262.c      **** }
  94:AS7262.c      **** 
ARM GAS  C:\Users\kvl6\AppData\Local\Temp\ccDFWSTJ.s 			page 4


  95:AS7262.c      **** CY_ISR( isr_handler_debug1 ) {
  78              		.loc 1 95 0
  79              		.cfi_startproc
  80              		@ args = 0, pretend = 0, frame = 0
  81              		@ frame_needed = 0, uses_anonymous_args = 0
  82 0000 08B5     		push	{r3, lr}
  83              		.cfi_def_cfa_offset 8
  84              		.cfi_offset 3, -8
  85              		.cfi_offset 14, -4
  96:AS7262.c      ****     LED_3_Write( 0 );
  86              		.loc 1 96 0
  87 0002 0020     		movs	r0, #0
  88 0004 FFF7FEFF 		bl	LED_3_Write
  89              	.LVL6:
  97:AS7262.c      ****     LCD_Position(1, 0);
  90              		.loc 1 97 0
  91 0008 0021     		movs	r1, #0
  92 000a 0120     		movs	r0, #1
  93 000c FFF7FEFF 		bl	LCD_Position
  94              	.LVL7:
  98:AS7262.c      ****     LCD_PrintString("debug1 ");
  95              		.loc 1 98 0
  96 0010 0148     		ldr	r0, .L7
  97 0012 FFF7FEFF 		bl	LCD_PrintString
  98              	.LVL8:
  99 0016 08BD     		pop	{r3, pc}
 100              	.L8:
 101              		.align	2
 102              	.L7:
 103 0018 20000000 		.word	.LC2
 104              		.cfi_endproc
 105              	.LFE65:
 106              		.size	isr_handler_debug1, .-isr_handler_debug1
 107              		.section	.text.I2C_AS7262_ReadRegister,"ax",%progbits
 108              		.align	2
 109              		.global	I2C_AS7262_ReadRegister
 110              		.thumb
 111              		.thumb_func
 112              		.type	I2C_AS7262_ReadRegister, %function
 113              	I2C_AS7262_ReadRegister:
 114              	.LFB73:
  99:AS7262.c      ****     //AS7262_INT_ClearInterrupt();
 100:AS7262.c      **** }
 101:AS7262.c      **** 
 102:AS7262.c      **** /******************************************************************************
 103:AS7262.c      **** * Function Name: AS7262_Init
 104:AS7262.c      **** *******************************************************************************
 105:AS7262.c      **** *
 106:AS7262.c      **** * Summary:
 107:AS7262.c      **** *  Set up the AS7262 with the default configuration.
 108:AS7262.c      **** *
 109:AS7262.c      **** * Return:
 110:AS7262.c      **** *  true (1) if the AS7262 responds with the correct device type
 111:AS7262.c      **** *
 112:AS7262.c      **** * Global variables:
 113:AS7262.c      **** *  as7262:  strucutre that stores a local copy of all the parameters it is set to
 114:AS7262.c      **** *
ARM GAS  C:\Users\kvl6\AppData\Local\Temp\ccDFWSTJ.s 			page 5


 115:AS7262.c      **** *******************************************************************************/
 116:AS7262.c      **** 
 117:AS7262.c      **** uint8 AS7262_Init(void) {
 118:AS7262.c      ****     // get the hardware and firmware data and save it to the struct
 119:AS7262.c      ****     uint8 data = I2C_AS7262_Read(AS726x_REG_DEVICE_TYPE);
 120:AS7262.c      ****     as7262.device_type = data;
 121:AS7262.c      ****     data = I2C_AS7262_Read(AS726x_REG_HW_VERSION);
 122:AS7262.c      ****     as7262.hw_version = data;
 123:AS7262.c      ****     data = I2C_AS7262_Read(AS726x_REG_FW1_VERSION);
 124:AS7262.c      ****     as7262.fw_version = ( data << 8 );
 125:AS7262.c      ****     data = I2C_AS7262_Read(AS726x_REG_FW2_VERSION);
 126:AS7262.c      ****     as7262.fw_version += data;
 127:AS7262.c      ****     
 128:AS7262.c      ****     // update the control,led, and integration time registers to their default starting values
 129:AS7262.c      ****     update_control_reg_value( &as7262 );
 130:AS7262.c      ****     update_LED_reg_value( &as7262 );
 131:AS7262.c      ****     I2C_AS7262_Write(AS726x_REG_INT, as7262.integration_time);
 132:AS7262.c      ****     
 133:AS7262.c      ****     // if the device responeded with the correct device type return true to symbolize the device is
 134:AS7262.c      ****     if ( as7262.device_type == AS7262_DEVICE_TYPE ) {
 135:AS7262.c      ****         return true;
 136:AS7262.c      ****     }
 137:AS7262.c      ****     return false;
 138:AS7262.c      **** }
 139:AS7262.c      **** 
 140:AS7262.c      **** /******************************************************************************
 141:AS7262.c      **** * Function Name: AS7262_Commands
 142:AS7262.c      **** *******************************************************************************
 143:AS7262.c      **** *
 144:AS7262.c      **** * Summary:
 145:AS7262.c      **** *  Take in User inputs that deal with the AS7262 and peform the proper action.
 146:AS7262.c      **** *
 147:AS7262.c      **** * Parameters:
 148:AS7262.c      **** *  uint8 buffer: array of the chars the user inputted
 149:AS7262.c      **** *
 150:AS7262.c      **** * Global variables:
 151:AS7262.c      **** *  as7262:  strucutre that stores a local copy of all the parameters it is set to
 152:AS7262.c      **** *
 153:AS7262.c      **** *******************************************************************************/
 154:AS7262.c      **** 
 155:AS7262.c      **** void AS7262_Commands(uint8 buffer[]) {
 156:AS7262.c      ****     switch ( buffer[7] ) {
 157:AS7262.c      ****         case READ_COMMANDS: ;  // a command to read 'READ' data is given, or register commands 'REG
 158:AS7262.c      ****             if ( buffer[9] == 'G' ) {  // Register read or write
 159:AS7262.c      ****                 if ( buffer[11] == 'W' ) {  // Write a register value
 160:AS7262.c      ****                     uint8 reg_to_write = convert_hex_string(&buffer[19]);
 161:AS7262.c      ****                     uint8 value_to_write = convert_hex_string(&buffer[24]);
 162:AS7262.c      ****                     I2C_AS7262_Write(reg_to_write, value_to_write);
 163:AS7262.c      ****                     LCD_Position(0, 0); 
 164:AS7262.c      ****                     sprintf(LCD_str, "R:0x%02x|v:0x%02x  ", reg_to_write, value_to_write);
 165:AS7262.c      ****                     LCD_PrintString(LCD_str);
 166:AS7262.c      ****                     LCD_Position(1, 0); 
 167:AS7262.c      ****                     sprintf(LCD_str, "B:%c|v:%c  ", buffer[24], buffer[25]);
 168:AS7262.c      ****                     LCD_PrintString(LCD_str);
 169:AS7262.c      ****                     
 170:AS7262.c      ****                 }
 171:AS7262.c      ****                 else if ( buffer[11] == 'R' ) {  // Read a value from a register
ARM GAS  C:\Users\kvl6\AppData\Local\Temp\ccDFWSTJ.s 			page 6


 172:AS7262.c      ****                     uint8 reg_to_read = convert_hex_string(&buffer[18]);
 173:AS7262.c      ****                     uint8 reg_value = I2C_AS7262_Read(reg_to_read);
 174:AS7262.c      ****                     sprintf(USB_str, "REG_VALUE|0x%02X", reg_value);
 175:AS7262.c      ****                     LCD_Position(0, 0); 
 176:AS7262.c      ****                     sprintf(LCD_str, "RegR:0x%02x|v:0x%02x  ", reg_to_read, reg_value);
 177:AS7262.c      ****                     // sprintf(LCD_str, "RegR:0x%d|v:0x%d  ", buffer[18], buffer[19]);
 178:AS7262.c      ****                     LCD_PrintString(LCD_str);
 179:AS7262.c      ****                     USB_Export_Data((uint8*)USB_str, 14);
 180:AS7262.c      ****                 }
 181:AS7262.c      ****             }
 182:AS7262.c      ****             if ( buffer[12] == 'S' ) {  // get a single data point
 183:AS7262.c      ****                 LCD_Position(0, 0);
 184:AS7262.c      ****                 LCD_PrintString("Single Read");
 185:AS7262.c      ****                 AS7262_SingleRead();
 186:AS7262.c      ****             }
 187:AS7262.c      ****             break;
 188:AS7262.c      ****         case SET_INTEGRATION_TIME: ; // the command to set the integration time
 189:AS7262.c      ****             uint8 new_integration_time = ConvertDecimal(&buffer[22],3);
 190:AS7262.c      ****             as7262.integration_time = new_integration_time;
 191:AS7262.c      ****             I2C_AS7262_Write( AS726x_REG_INT, as7262.integration_time );
 192:AS7262.c      ****             break;
 193:AS7262.c      ****             
 194:AS7262.c      ****         case SET_GAIN: ; // change the gain setting of the device
 195:AS7262.c      ****             as7262.gain = ( ConvertDecimal(&buffer[12], 1) & 0x03 );  // only allow values from 0x0
 196:AS7262.c      ****             update_control_reg_value( &as7262 );
 197:AS7262.c      ****             break;
 198:AS7262.c      ****         case SET_LED_POWER: ; // set the current through the main light source
 199:AS7262.c      ****             as7262.LED_power_level = ( ConvertDecimal(&buffer[19], 1) & 0x03 );  // only allow valu
 200:AS7262.c      ****             update_LED_reg_value( &as7262 );
 201:AS7262.c      ****             break;
 202:AS7262.c      ****         case LED_ON_OFF: ;  //  set if the LED should be on or off
 203:AS7262.c      ****             if ( (buffer[17] == 'N') || (buffer[17] == 'n') ) {
 204:AS7262.c      ****                 as7262.LED_on = True;
 205:AS7262.c      ****             }
 206:AS7262.c      ****             else if ( (buffer[17] == 'F') || (buffer[17] == 'f') ) {
 207:AS7262.c      ****                 as7262.LED_on = False;
 208:AS7262.c      ****             }
 209:AS7262.c      ****             update_LED_reg_value( &as7262 );
 210:AS7262.c      ****             break;
 211:AS7262.c      ****     }
 212:AS7262.c      **** }
 213:AS7262.c      **** 
 214:AS7262.c      **** uint8 update_control_reg_value(AS7262_settings* as7262_ptr) {
 215:AS7262.c      ****     uint8 control_reg = (as7262_ptr->interrupt_on << 6) | 
 216:AS7262.c      ****                         (as7262_ptr->gain << 4) | 
 217:AS7262.c      ****                         (as7262_ptr->measurement_mode << 2);
 218:AS7262.c      ****     I2C_AS7262_Write( AS726x_REG_CONTROL, control_reg );
 219:AS7262.c      ****     as7262_ptr->control_reg_value = control_reg;
 220:AS7262.c      ****     return control_reg;
 221:AS7262.c      **** }
 222:AS7262.c      **** 
 223:AS7262.c      **** uint8 update_LED_reg_value(AS7262_settings* as7262_ptr) {
 224:AS7262.c      ****     uint8 led_control_reg = (as7262_ptr->LED_power_level << 4) | 
 225:AS7262.c      ****                             (as7262_ptr->LED_on << 3) | 
 226:AS7262.c      ****                             (as7262_ptr->indicator_power_level << 1) |
 227:AS7262.c      ****                             (as7262_ptr->indicator_on);
 228:AS7262.c      ****     I2C_AS7262_Write( AS726x_REG_LED, led_control_reg );
ARM GAS  C:\Users\kvl6\AppData\Local\Temp\ccDFWSTJ.s 			page 7


 229:AS7262.c      ****     as7262_ptr->LED_control_reg_value = led_control_reg;
 230:AS7262.c      ****     return led_control_reg;
 231:AS7262.c      **** }
 232:AS7262.c      **** 
 233:AS7262.c      **** 
 234:AS7262.c      **** void AS7262_SingleRead(void) {
 235:AS7262.c      ****     // send command to run a single shot read
 236:AS7262.c      ****     LCD_ClearDisplay();
 237:AS7262.c      ****     LCD_Position(0, 0);
 238:AS7262.c      ****     LCD_PrintString("SingleRead  ");
 239:AS7262.c      ****     I2C_AS7262_Write( AS726x_REG_CONTROL, as7262.control_reg_value );
 240:AS7262.c      ****     LCD_Position(0, 0);
 241:AS7262.c      ****     LCD_PrintString("SingleRead2  ");
 242:AS7262.c      ****     
 243:AS7262.c      ****     CyDelay( (5.8 * as7262.integration_time) );
 244:AS7262.c      ****     uint8 data;
 245:AS7262.c      ****     uint8 failed_tries=0;
 246:AS7262.c      ****     do {
 247:AS7262.c      ****         CyDelay(1);
 248:AS7262.c      ****         data = I2C_AS7262_Read( AS726x_REG_CONTROL );
 249:AS7262.c      ****         failed_tries++;
 250:AS7262.c      ****         if ( failed_tries > 200 ) {
 251:AS7262.c      ****             USB_Export_Data((uint8*)"FAILED", 6);
 252:AS7262.c      ****         }
 253:AS7262.c      ****     } while ( (data & 0x02) == 0x02 );
 254:AS7262.c      **** //    LCD_Position(1, 0); 
 255:AS7262.c      **** //    sprintf(LCD_str, "C2:0x%02x|0x%02x  ", data, as7262.control_reg_value);
 256:AS7262.c      **** //    LCD_PrintString(LCD_str);
 257:AS7262.c      **** //    isr_as7262_int_StartEx( isr_handler_basic_read );
 258:AS7262.c      **** //    isr_as7262_pin_StartEx( isr_handler_debug1 );
 259:AS7262.c      ****     //LED_3_Write( 1 );
 260:AS7262.c      ****     //CyDelay(1000);
 261:AS7262.c      ****     AS7262_ReadAllData();
 262:AS7262.c      ****     USB_Export_Data(all_calibrated_data.data_bytes, 24);
 263:AS7262.c      **** }
 264:AS7262.c      **** 
 265:AS7262.c      **** void AS7262_ReadAllData(void) {
 266:AS7262.c      ****     for (uint8 i=0; i < 24; i++ ) {
 267:AS7262.c      ****         all_calibrated_data.data_bytes[i] = I2C_AS7262_Read(AS7262_DATA_START_ADDR + i);
 268:AS7262.c      ****     }
 269:AS7262.c      **** //    LCD_Position(0, 0);
 270:AS7262.c      **** //    sprintf(LCD_str, "C:0x%02x|0x%02x  ", all_calibrated_data.data_bytes[0], all_calibrated_data.
 271:AS7262.c      **** //    LCD_PrintString(LCD_str);
 272:AS7262.c      ****     
 273:AS7262.c      **** }
 274:AS7262.c      **** 
 275:AS7262.c      **** 
 276:AS7262.c      **** uint8 I2C_AS7262_Read(uint8 reg_addr) {
 277:AS7262.c      ****     uint8 status;
 278:AS7262.c      **** //    LCD_Position(1, 0); 
 279:AS7262.c      **** //    LCD_PrintString("read0   ");
 280:AS7262.c      ****     status = I2C_AS7262_ReadRegister(AS72XX_SLAVE_STATUS_REG);
 281:AS7262.c      **** //    LCD_Position(1, 0); 
 282:AS7262.c      **** //    LCD_PrintString("read0b   ");
 283:AS7262.c      ****     if ( ( status & AS72XX_SLAVE_RX_VALID ) != 0 ) {  // data is trying ready to read, but it was n
 284:AS7262.c      ****         uint8 data = I2C_AS7262_ReadRegister(reg_addr);
 285:AS7262.c      ****     }
ARM GAS  C:\Users\kvl6\AppData\Local\Temp\ccDFWSTJ.s 			page 8


 286:AS7262.c      **** //    LCD_Position(1, 0); 
 287:AS7262.c      **** //    LCD_PrintString("read1   ");
 288:AS7262.c      **** //    
 289:AS7262.c      **** //    I2C_AS7262_WriteRegister(AS72XX_SLAVE_WRITE_REG, ( reg_addr | 0x80 ) );
 290:AS7262.c      ****     
 291:AS7262.c      ****     // Wait for the write flag to clear
 292:AS7262.c      ****     while(1) {
 293:AS7262.c      ****         status = I2C_AS7262_ReadRegister( AS72XX_SLAVE_STATUS_REG );
 294:AS7262.c      ****         if( ( status & AS72XX_SLAVE_TX_VALID ) == 0 ) {
 295:AS7262.c      ****             break;
 296:AS7262.c      ****         }
 297:AS7262.c      ****         CyDelay(1);
 298:AS7262.c      ****     }
 299:AS7262.c      ****     I2C_AS7262_WriteRegister( AS72XX_SLAVE_WRITE_REG, reg_addr );
 300:AS7262.c      **** //    LCD_Position(1, 0); 
 301:AS7262.c      **** //    LCD_PrintString("read2   ");
 302:AS7262.c      ****     // Wait for read flag to be set
 303:AS7262.c      ****     while(1) {
 304:AS7262.c      ****         status = I2C_AS7262_ReadRegister(AS72XX_SLAVE_STATUS_REG);
 305:AS7262.c      ****         // Check if the status register has the data read bit set
 306:AS7262.c      ****         if ( ( status & AS72XX_SLAVE_RX_VALID ) != 0 ) {  
 307:AS7262.c      ****             break;
 308:AS7262.c      ****         }
 309:AS7262.c      ****         CyDelay(1);
 310:AS7262.c      **** //        LCD_Position(0, 0); 
 311:AS7262.c      **** //        sprintf(LCD_str, "Code9: %d", status);
 312:AS7262.c      **** //        LCD_PrintString(LCD_str);
 313:AS7262.c      ****     }
 314:AS7262.c      **** 
 315:AS7262.c      ****     return I2C_AS7262_ReadRegister(AS72XX_SLAVE_READ_REG);
 316:AS7262.c      **** }
 317:AS7262.c      **** 
 318:AS7262.c      **** uint8 I2C_AS7262_ReadRegister(uint8 reg_addr) {
 115              		.loc 1 318 0
 116              		.cfi_startproc
 117              		@ args = 0, pretend = 0, frame = 0
 118              		@ frame_needed = 0, uses_anonymous_args = 0
 119              	.LVL9:
 120 0000 10B5     		push	{r4, lr}
 121              		.cfi_def_cfa_offset 8
 122              		.cfi_offset 4, -8
 123              		.cfi_offset 14, -4
 319:AS7262.c      ****     uint8 status;
 320:AS7262.c      **** //    LCD_Position(0, 0); 
 321:AS7262.c      **** //    LCD_PrintString("read00   ");
 322:AS7262.c      ****     status = sensor_read8(AS7262_ADDRESS, read_buffer, reg_addr, &as7262.comm_error);
 124              		.loc 1 322 0
 125 0002 044C     		ldr	r4, .L11
 126 0004 044B     		ldr	r3, .L11+4
 127 0006 0246     		mov	r2, r0
 128 0008 2146     		mov	r1, r4
 129 000a 4920     		movs	r0, #73
 130              	.LVL10:
 131 000c FFF7FEFF 		bl	sensor_read8
 132              	.LVL11:
 323:AS7262.c      **** //    LCD_Position(0, 0); 
 324:AS7262.c      **** //    LCD_PrintString("read01   ");
ARM GAS  C:\Users\kvl6\AppData\Local\Temp\ccDFWSTJ.s 			page 9


 325:AS7262.c      ****     return read_buffer[0];
 326:AS7262.c      **** }
 133              		.loc 1 326 0
 134 0010 2078     		ldrb	r0, [r4]	@ zero_extendqisi2
 135 0012 10BD     		pop	{r4, pc}
 136              	.L12:
 137              		.align	2
 138              	.L11:
 139 0014 00000000 		.word	read_buffer
 140 0018 0C000000 		.word	.LANCHOR0+12
 141              		.cfi_endproc
 142              	.LFE73:
 143              		.size	I2C_AS7262_ReadRegister, .-I2C_AS7262_ReadRegister
 144              		.section	.text.I2C_AS7262_WriteRegister,"ax",%progbits
 145              		.align	2
 146              		.global	I2C_AS7262_WriteRegister
 147              		.thumb
 148              		.thumb_func
 149              		.type	I2C_AS7262_WriteRegister, %function
 150              	I2C_AS7262_WriteRegister:
 151              	.LFB75:
 327:AS7262.c      **** 
 328:AS7262.c      **** uint8 I2C_AS7262_Write(uint8 reg_addr, uint8 value) {
 329:AS7262.c      ****     uint8 status;
 330:AS7262.c      ****     // Check to see if write buffer is ready
 331:AS7262.c      ****     while(1) {
 332:AS7262.c      ****         status = I2C_AS7262_ReadRegister( AS72XX_SLAVE_STATUS_REG );
 333:AS7262.c      ****         if( ( status & AS72XX_SLAVE_TX_VALID ) == 0 ) {
 334:AS7262.c      ****             break;  // no data inbound so it can be written to
 335:AS7262.c      ****         }
 336:AS7262.c      ****     }
 337:AS7262.c      ****     // Send the virtual register address and set bit 7 to indicate a pending write
 338:AS7262.c      ****     I2C_AS7262_WriteRegister( AS72XX_SLAVE_WRITE_REG, ( reg_addr | AS726x_WRITE_REG_MASK ) );
 339:AS7262.c      ****     // Wait for the write flag to clear
 340:AS7262.c      ****     while(1) {
 341:AS7262.c      ****         status = I2C_AS7262_ReadRegister( AS72XX_SLAVE_STATUS_REG );
 342:AS7262.c      ****         if( ( status & AS72XX_SLAVE_TX_VALID ) == 0 ) {
 343:AS7262.c      ****             break;  // no data inbound so it can be written to
 344:AS7262.c      ****         }
 345:AS7262.c      ****     }
 346:AS7262.c      ****     
 347:AS7262.c      ****     return I2C_AS7262_WriteRegister(AS72XX_SLAVE_WRITE_REG, value);
 348:AS7262.c      **** }
 349:AS7262.c      **** 
 350:AS7262.c      **** 
 351:AS7262.c      **** uint8 I2C_AS7262_WriteRegister(uint8 reg_addr, uint8 value) {
 152              		.loc 1 351 0
 153              		.cfi_startproc
 154              		@ args = 0, pretend = 0, frame = 0
 155              		@ frame_needed = 0, uses_anonymous_args = 0
 156              	.LVL12:
 157 0000 08B5     		push	{r3, lr}
 158              		.cfi_def_cfa_offset 8
 159              		.cfi_offset 3, -8
 160              		.cfi_offset 14, -4
 352:AS7262.c      ****     uint8 status;
 353:AS7262.c      ****     write_buffer[0] = reg_addr;
ARM GAS  C:\Users\kvl6\AppData\Local\Temp\ccDFWSTJ.s 			page 10


 161              		.loc 1 353 0
 162 0002 044B     		ldr	r3, .L15
 163 0004 1870     		strb	r0, [r3]
 354:AS7262.c      ****     write_buffer[1] = value;
 164              		.loc 1 354 0
 165 0006 5970     		strb	r1, [r3, #1]
 355:AS7262.c      ****     return sensor_write8(AS7262_ADDRESS, write_buffer);
 166              		.loc 1 355 0
 167 0008 1946     		mov	r1, r3
 168              	.LVL13:
 169 000a 4920     		movs	r0, #73
 170              	.LVL14:
 171 000c FFF7FEFF 		bl	sensor_write8
 172              	.LVL15:
 356:AS7262.c      **** }
 173              		.loc 1 356 0
 174 0010 08BD     		pop	{r3, pc}
 175              	.L16:
 176 0012 00BF     		.align	2
 177              	.L15:
 178 0014 00000000 		.word	write_buffer
 179              		.cfi_endproc
 180              	.LFE75:
 181              		.size	I2C_AS7262_WriteRegister, .-I2C_AS7262_WriteRegister
 182              		.section	.text.I2C_AS7262_Read,"ax",%progbits
 183              		.align	2
 184              		.global	I2C_AS7262_Read
 185              		.thumb
 186              		.thumb_func
 187              		.type	I2C_AS7262_Read, %function
 188              	I2C_AS7262_Read:
 189              	.LFB72:
 276:AS7262.c      ****     uint8 status;
 190              		.loc 1 276 0
 191              		.cfi_startproc
 192              		@ args = 0, pretend = 0, frame = 0
 193              		@ frame_needed = 0, uses_anonymous_args = 0
 194              	.LVL16:
 195 0000 10B5     		push	{r4, lr}
 196              		.cfi_def_cfa_offset 8
 197              		.cfi_offset 4, -8
 198              		.cfi_offset 14, -4
 199 0002 0446     		mov	r4, r0
 280:AS7262.c      **** //    LCD_Position(1, 0); 
 200              		.loc 1 280 0
 201 0004 0020     		movs	r0, #0
 202              	.LVL17:
 203 0006 FFF7FEFF 		bl	I2C_AS7262_ReadRegister
 204              	.LVL18:
 283:AS7262.c      ****         uint8 data = I2C_AS7262_ReadRegister(reg_addr);
 205              		.loc 1 283 0
 206 000a 10F0010F 		tst	r0, #1
 207 000e 02D0     		beq	.L20
 208              	.LBB2:
 284:AS7262.c      ****     }
 209              		.loc 1 284 0
 210 0010 2046     		mov	r0, r4
ARM GAS  C:\Users\kvl6\AppData\Local\Temp\ccDFWSTJ.s 			page 11


 211              	.LVL19:
 212 0012 FFF7FEFF 		bl	I2C_AS7262_ReadRegister
 213              	.LVL20:
 214              	.L20:
 215              	.LBE2:
 293:AS7262.c      ****         if( ( status & AS72XX_SLAVE_TX_VALID ) == 0 ) {
 216              		.loc 1 293 0
 217 0016 0020     		movs	r0, #0
 218 0018 FFF7FEFF 		bl	I2C_AS7262_ReadRegister
 219              	.LVL21:
 294:AS7262.c      ****             break;
 220              		.loc 1 294 0
 221 001c 10F0020F 		tst	r0, #2
 222 0020 03D0     		beq	.L19
 297:AS7262.c      ****     }
 223              		.loc 1 297 0
 224 0022 0120     		movs	r0, #1
 225              	.LVL22:
 226 0024 FFF7FEFF 		bl	CyDelay
 227              	.LVL23:
 298:AS7262.c      ****     I2C_AS7262_WriteRegister( AS72XX_SLAVE_WRITE_REG, reg_addr );
 228              		.loc 1 298 0
 229 0028 F5E7     		b	.L20
 230              	.LVL24:
 231              	.L19:
 299:AS7262.c      **** //    LCD_Position(1, 0); 
 232              		.loc 1 299 0
 233 002a 2146     		mov	r1, r4
 234 002c 0120     		movs	r0, #1
 235              	.LVL25:
 236 002e FFF7FEFF 		bl	I2C_AS7262_WriteRegister
 237              	.LVL26:
 238              	.L22:
 304:AS7262.c      ****         // Check if the status register has the data read bit set
 239              		.loc 1 304 0
 240 0032 0020     		movs	r0, #0
 241 0034 FFF7FEFF 		bl	I2C_AS7262_ReadRegister
 242              	.LVL27:
 306:AS7262.c      ****             break;
 243              		.loc 1 306 0
 244 0038 10F0010F 		tst	r0, #1
 245 003c 03D1     		bne	.L21
 309:AS7262.c      **** //        LCD_Position(0, 0); 
 246              		.loc 1 309 0
 247 003e 0120     		movs	r0, #1
 248              	.LVL28:
 249 0040 FFF7FEFF 		bl	CyDelay
 250              	.LVL29:
 313:AS7262.c      **** 
 251              		.loc 1 313 0
 252 0044 F5E7     		b	.L22
 253              	.LVL30:
 254              	.L21:
 315:AS7262.c      **** }
 255              		.loc 1 315 0
 256 0046 0220     		movs	r0, #2
 257              	.LVL31:
ARM GAS  C:\Users\kvl6\AppData\Local\Temp\ccDFWSTJ.s 			page 12


 258 0048 FFF7FEFF 		bl	I2C_AS7262_ReadRegister
 259              	.LVL32:
 316:AS7262.c      **** 
 260              		.loc 1 316 0
 261 004c 10BD     		pop	{r4, pc}
 262              		.cfi_endproc
 263              	.LFE72:
 264              		.size	I2C_AS7262_Read, .-I2C_AS7262_Read
 265 004e 00BF     		.section	.text.AS7262_ReadAllData,"ax",%progbits
 266              		.align	2
 267              		.global	AS7262_ReadAllData
 268              		.thumb
 269              		.thumb_func
 270              		.type	AS7262_ReadAllData, %function
 271              	AS7262_ReadAllData:
 272              	.LFB71:
 265:AS7262.c      ****     for (uint8 i=0; i < 24; i++ ) {
 273              		.loc 1 265 0
 274              		.cfi_startproc
 275              		@ args = 0, pretend = 0, frame = 0
 276              		@ frame_needed = 0, uses_anonymous_args = 0
 277 0000 10B5     		push	{r4, lr}
 278              		.cfi_def_cfa_offset 8
 279              		.cfi_offset 4, -8
 280              		.cfi_offset 14, -4
 281              	.LVL33:
 282              	.LBB3:
 266:AS7262.c      ****         all_calibrated_data.data_bytes[i] = I2C_AS7262_Read(AS7262_DATA_START_ADDR + i);
 283              		.loc 1 266 0
 284 0002 0024     		movs	r4, #0
 285 0004 08E0     		b	.L25
 286              	.LVL34:
 287              	.L26:
 267:AS7262.c      ****     }
 288              		.loc 1 267 0 discriminator 3
 289 0006 04F11400 		add	r0, r4, #20
 290 000a C0B2     		uxtb	r0, r0
 291 000c FFF7FEFF 		bl	I2C_AS7262_Read
 292              	.LVL35:
 293 0010 034B     		ldr	r3, .L28
 294 0012 1855     		strb	r0, [r3, r4]
 266:AS7262.c      ****         all_calibrated_data.data_bytes[i] = I2C_AS7262_Read(AS7262_DATA_START_ADDR + i);
 295              		.loc 1 266 0 discriminator 3
 296 0014 0134     		adds	r4, r4, #1
 297              	.LVL36:
 298 0016 E4B2     		uxtb	r4, r4
 299              	.LVL37:
 300              	.L25:
 266:AS7262.c      ****         all_calibrated_data.data_bytes[i] = I2C_AS7262_Read(AS7262_DATA_START_ADDR + i);
 301              		.loc 1 266 0 is_stmt 0 discriminator 1
 302 0018 172C     		cmp	r4, #23
 303 001a F4D9     		bls	.L26
 304              	.LBE3:
 273:AS7262.c      **** 
 305              		.loc 1 273 0 is_stmt 1
 306 001c 10BD     		pop	{r4, pc}
 307              	.LVL38:
ARM GAS  C:\Users\kvl6\AppData\Local\Temp\ccDFWSTJ.s 			page 13


 308              	.L29:
 309 001e 00BF     		.align	2
 310              	.L28:
 311 0020 00000000 		.word	all_calibrated_data
 312              		.cfi_endproc
 313              	.LFE71:
 314              		.size	AS7262_ReadAllData, .-AS7262_ReadAllData
 315              		.section	.text.I2C_AS7262_Write,"ax",%progbits
 316              		.align	2
 317              		.global	I2C_AS7262_Write
 318              		.thumb
 319              		.thumb_func
 320              		.type	I2C_AS7262_Write, %function
 321              	I2C_AS7262_Write:
 322              	.LFB74:
 328:AS7262.c      ****     uint8 status;
 323              		.loc 1 328 0
 324              		.cfi_startproc
 325              		@ args = 0, pretend = 0, frame = 0
 326              		@ frame_needed = 0, uses_anonymous_args = 0
 327              	.LVL39:
 328 0000 38B5     		push	{r3, r4, r5, lr}
 329              		.cfi_def_cfa_offset 16
 330              		.cfi_offset 3, -16
 331              		.cfi_offset 4, -12
 332              		.cfi_offset 5, -8
 333              		.cfi_offset 14, -4
 334 0002 0546     		mov	r5, r0
 335 0004 0C46     		mov	r4, r1
 336              	.LVL40:
 337              	.L31:
 332:AS7262.c      ****         if( ( status & AS72XX_SLAVE_TX_VALID ) == 0 ) {
 338              		.loc 1 332 0
 339 0006 0020     		movs	r0, #0
 340 0008 FFF7FEFF 		bl	I2C_AS7262_ReadRegister
 341              	.LVL41:
 333:AS7262.c      ****             break;  // no data inbound so it can be written to
 342              		.loc 1 333 0
 343 000c 10F0020F 		tst	r0, #2
 344 0010 F9D1     		bne	.L31
 338:AS7262.c      ****     // Wait for the write flag to clear
 345              		.loc 1 338 0
 346 0012 45F08001 		orr	r1, r5, #128
 347 0016 0120     		movs	r0, #1
 348              	.LVL42:
 349 0018 FFF7FEFF 		bl	I2C_AS7262_WriteRegister
 350              	.LVL43:
 351              	.L32:
 341:AS7262.c      ****         if( ( status & AS72XX_SLAVE_TX_VALID ) == 0 ) {
 352              		.loc 1 341 0
 353 001c 0020     		movs	r0, #0
 354 001e FFF7FEFF 		bl	I2C_AS7262_ReadRegister
 355              	.LVL44:
 342:AS7262.c      ****             break;  // no data inbound so it can be written to
 356              		.loc 1 342 0
 357 0022 10F0020F 		tst	r0, #2
 358 0026 F9D1     		bne	.L32
ARM GAS  C:\Users\kvl6\AppData\Local\Temp\ccDFWSTJ.s 			page 14


 347:AS7262.c      **** }
 359              		.loc 1 347 0
 360 0028 2146     		mov	r1, r4
 361 002a 0120     		movs	r0, #1
 362              	.LVL45:
 363 002c FFF7FEFF 		bl	I2C_AS7262_WriteRegister
 364              	.LVL46:
 348:AS7262.c      **** 
 365              		.loc 1 348 0
 366 0030 38BD     		pop	{r3, r4, r5, pc}
 367              		.cfi_endproc
 368              	.LFE74:
 369              		.size	I2C_AS7262_Write, .-I2C_AS7262_Write
 370 0032 00BF     		.section	.text.update_control_reg_value,"ax",%progbits
 371              		.align	2
 372              		.global	update_control_reg_value
 373              		.thumb
 374              		.thumb_func
 375              		.type	update_control_reg_value, %function
 376              	update_control_reg_value:
 377              	.LFB68:
 214:AS7262.c      ****     uint8 control_reg = (as7262_ptr->interrupt_on << 6) | 
 378              		.loc 1 214 0
 379              		.cfi_startproc
 380              		@ args = 0, pretend = 0, frame = 0
 381              		@ frame_needed = 0, uses_anonymous_args = 0
 382              	.LVL47:
 383 0000 38B5     		push	{r3, r4, r5, lr}
 384              		.cfi_def_cfa_offset 16
 385              		.cfi_offset 3, -16
 386              		.cfi_offset 4, -12
 387              		.cfi_offset 5, -8
 388              		.cfi_offset 14, -4
 389 0002 0546     		mov	r5, r0
 215:AS7262.c      ****                         (as7262_ptr->gain << 4) | 
 390              		.loc 1 215 0
 391 0004 8478     		ldrb	r4, [r0, #2]	@ zero_extendqisi2
 216:AS7262.c      ****                         (as7262_ptr->measurement_mode << 2);
 392              		.loc 1 216 0
 393 0006 4378     		ldrb	r3, [r0, #1]	@ zero_extendqisi2
 394 0008 1B01     		lsls	r3, r3, #4
 217:AS7262.c      ****     I2C_AS7262_Write( AS726x_REG_CONTROL, control_reg );
 395              		.loc 1 217 0
 396 000a 0278     		ldrb	r2, [r0]	@ zero_extendqisi2
 215:AS7262.c      ****                         (as7262_ptr->gain << 4) | 
 397              		.loc 1 215 0
 398 000c 43EA8414 		orr	r4, r3, r4, lsl #6
 399 0010 44EA8204 		orr	r4, r4, r2, lsl #2
 400 0014 E4B2     		uxtb	r4, r4
 401              	.LVL48:
 218:AS7262.c      ****     as7262_ptr->control_reg_value = control_reg;
 402              		.loc 1 218 0
 403 0016 2146     		mov	r1, r4
 404 0018 0420     		movs	r0, #4
 405              	.LVL49:
 406 001a FFF7FEFF 		bl	I2C_AS7262_Write
 407              	.LVL50:
ARM GAS  C:\Users\kvl6\AppData\Local\Temp\ccDFWSTJ.s 			page 15


 219:AS7262.c      ****     return control_reg;
 408              		.loc 1 219 0
 409 001e 2C74     		strb	r4, [r5, #16]
 221:AS7262.c      **** 
 410              		.loc 1 221 0
 411 0020 2046     		mov	r0, r4
 412 0022 38BD     		pop	{r3, r4, r5, pc}
 413              		.cfi_endproc
 414              	.LFE68:
 415              		.size	update_control_reg_value, .-update_control_reg_value
 416              		.section	.text.update_LED_reg_value,"ax",%progbits
 417              		.align	2
 418              		.global	update_LED_reg_value
 419              		.thumb
 420              		.thumb_func
 421              		.type	update_LED_reg_value, %function
 422              	update_LED_reg_value:
 423              	.LFB69:
 223:AS7262.c      ****     uint8 led_control_reg = (as7262_ptr->LED_power_level << 4) | 
 424              		.loc 1 223 0
 425              		.cfi_startproc
 426              		@ args = 0, pretend = 0, frame = 0
 427              		@ frame_needed = 0, uses_anonymous_args = 0
 428              	.LVL51:
 429 0000 38B5     		push	{r3, r4, r5, lr}
 430              		.cfi_def_cfa_offset 16
 431              		.cfi_offset 3, -16
 432              		.cfi_offset 4, -12
 433              		.cfi_offset 5, -8
 434              		.cfi_offset 14, -4
 435 0002 0546     		mov	r5, r0
 224:AS7262.c      ****                             (as7262_ptr->LED_on << 3) | 
 436              		.loc 1 224 0
 437 0004 0479     		ldrb	r4, [r0, #4]	@ zero_extendqisi2
 225:AS7262.c      ****                             (as7262_ptr->indicator_power_level << 1) |
 438              		.loc 1 225 0
 439 0006 4279     		ldrb	r2, [r0, #5]	@ zero_extendqisi2
 440 0008 D200     		lsls	r2, r2, #3
 226:AS7262.c      ****                             (as7262_ptr->indicator_on);
 441              		.loc 1 226 0
 442 000a 8179     		ldrb	r1, [r0, #6]	@ zero_extendqisi2
 227:AS7262.c      ****     I2C_AS7262_Write( AS726x_REG_LED, led_control_reg );
 443              		.loc 1 227 0
 444 000c C379     		ldrb	r3, [r0, #7]	@ zero_extendqisi2
 224:AS7262.c      ****                             (as7262_ptr->LED_on << 3) | 
 445              		.loc 1 224 0
 446 000e 42EA0414 		orr	r4, r2, r4, lsl #4
 447 0012 44EA4104 		orr	r4, r4, r1, lsl #1
 448 0016 1C43     		orrs	r4, r4, r3
 449 0018 E4B2     		uxtb	r4, r4
 450              	.LVL52:
 228:AS7262.c      ****     as7262_ptr->LED_control_reg_value = led_control_reg;
 451              		.loc 1 228 0
 452 001a 2146     		mov	r1, r4
 453 001c 0720     		movs	r0, #7
 454              	.LVL53:
 455 001e FFF7FEFF 		bl	I2C_AS7262_Write
ARM GAS  C:\Users\kvl6\AppData\Local\Temp\ccDFWSTJ.s 			page 16


 456              	.LVL54:
 229:AS7262.c      ****     return led_control_reg;
 457              		.loc 1 229 0
 458 0022 6C74     		strb	r4, [r5, #17]
 231:AS7262.c      **** 
 459              		.loc 1 231 0
 460 0024 2046     		mov	r0, r4
 461 0026 38BD     		pop	{r3, r4, r5, pc}
 462              		.cfi_endproc
 463              	.LFE69:
 464              		.size	update_LED_reg_value, .-update_LED_reg_value
 465              		.section	.text.AS7262_Init,"ax",%progbits
 466              		.align	2
 467              		.global	AS7262_Init
 468              		.thumb
 469              		.thumb_func
 470              		.type	AS7262_Init, %function
 471              	AS7262_Init:
 472              	.LFB66:
 117:AS7262.c      ****     // get the hardware and firmware data and save it to the struct
 473              		.loc 1 117 0
 474              		.cfi_startproc
 475              		@ args = 0, pretend = 0, frame = 0
 476              		@ frame_needed = 0, uses_anonymous_args = 0
 477 0000 10B5     		push	{r4, lr}
 478              		.cfi_def_cfa_offset 8
 479              		.cfi_offset 4, -8
 480              		.cfi_offset 14, -4
 119:AS7262.c      ****     as7262.device_type = data;
 481              		.loc 1 119 0
 482 0002 0020     		movs	r0, #0
 483 0004 FFF7FEFF 		bl	I2C_AS7262_Read
 484              	.LVL55:
 120:AS7262.c      ****     data = I2C_AS7262_Read(AS726x_REG_HW_VERSION);
 485              		.loc 1 120 0
 486 0008 104C     		ldr	r4, .L42
 487 000a 2072     		strb	r0, [r4, #8]
 121:AS7262.c      ****     as7262.hw_version = data;
 488              		.loc 1 121 0
 489 000c 0120     		movs	r0, #1
 490              	.LVL56:
 491 000e FFF7FEFF 		bl	I2C_AS7262_Read
 492              	.LVL57:
 122:AS7262.c      ****     data = I2C_AS7262_Read(AS726x_REG_FW1_VERSION);
 493              		.loc 1 122 0
 494 0012 6072     		strb	r0, [r4, #9]
 123:AS7262.c      ****     as7262.fw_version = ( data << 8 );
 495              		.loc 1 123 0
 496 0014 0220     		movs	r0, #2
 497              	.LVL58:
 498 0016 FFF7FEFF 		bl	I2C_AS7262_Read
 499              	.LVL59:
 124:AS7262.c      ****     data = I2C_AS7262_Read(AS726x_REG_FW2_VERSION);
 500              		.loc 1 124 0
 501 001a 0002     		lsls	r0, r0, #8
 502              	.LVL60:
 503 001c 6081     		strh	r0, [r4, #10]	@ movhi
ARM GAS  C:\Users\kvl6\AppData\Local\Temp\ccDFWSTJ.s 			page 17


 125:AS7262.c      ****     as7262.fw_version += data;
 504              		.loc 1 125 0
 505 001e 0320     		movs	r0, #3
 506 0020 FFF7FEFF 		bl	I2C_AS7262_Read
 507              	.LVL61:
 126:AS7262.c      ****     
 508              		.loc 1 126 0
 509 0024 6389     		ldrh	r3, [r4, #10]
 510 0026 1844     		add	r0, r0, r3
 511              	.LVL62:
 512 0028 6081     		strh	r0, [r4, #10]	@ movhi
 129:AS7262.c      ****     update_LED_reg_value( &as7262 );
 513              		.loc 1 129 0
 514 002a 2046     		mov	r0, r4
 515 002c FFF7FEFF 		bl	update_control_reg_value
 516              	.LVL63:
 130:AS7262.c      ****     I2C_AS7262_Write(AS726x_REG_INT, as7262.integration_time);
 517              		.loc 1 130 0
 518 0030 2046     		mov	r0, r4
 519 0032 FFF7FEFF 		bl	update_LED_reg_value
 520              	.LVL64:
 131:AS7262.c      ****     
 521              		.loc 1 131 0
 522 0036 E178     		ldrb	r1, [r4, #3]	@ zero_extendqisi2
 523 0038 0520     		movs	r0, #5
 524 003a FFF7FEFF 		bl	I2C_AS7262_Write
 525              	.LVL65:
 134:AS7262.c      ****         return true;
 526              		.loc 1 134 0
 527 003e 237A     		ldrb	r3, [r4, #8]	@ zero_extendqisi2
 528 0040 402B     		cmp	r3, #64
 529 0042 01D1     		bne	.L40
 135:AS7262.c      ****     }
 530              		.loc 1 135 0
 531 0044 0120     		movs	r0, #1
 532 0046 10BD     		pop	{r4, pc}
 533              	.L40:
 137:AS7262.c      **** }
 534              		.loc 1 137 0
 535 0048 0020     		movs	r0, #0
 138:AS7262.c      **** 
 536              		.loc 1 138 0
 537 004a 10BD     		pop	{r4, pc}
 538              	.L43:
 539              		.align	2
 540              	.L42:
 541 004c 00000000 		.word	.LANCHOR0
 542              		.cfi_endproc
 543              	.LFE66:
 544              		.size	AS7262_Init, .-AS7262_Init
 545              		.global	__aeabi_i2d
 546              		.global	__aeabi_dmul
 547              		.global	__aeabi_d2uiz
 548              		.section	.text.AS7262_SingleRead,"ax",%progbits
 549              		.align	2
 550              		.global	AS7262_SingleRead
 551              		.thumb
ARM GAS  C:\Users\kvl6\AppData\Local\Temp\ccDFWSTJ.s 			page 18


 552              		.thumb_func
 553              		.type	AS7262_SingleRead, %function
 554              	AS7262_SingleRead:
 555              	.LFB70:
 234:AS7262.c      ****     // send command to run a single shot read
 556              		.loc 1 234 0
 557              		.cfi_startproc
 558              		@ args = 0, pretend = 0, frame = 0
 559              		@ frame_needed = 0, uses_anonymous_args = 0
 560 0000 38B5     		push	{r3, r4, r5, lr}
 561              		.cfi_def_cfa_offset 16
 562              		.cfi_offset 3, -16
 563              		.cfi_offset 4, -12
 564              		.cfi_offset 5, -8
 565              		.cfi_offset 14, -4
 236:AS7262.c      ****     LCD_Position(0, 0);
 566              		.loc 1 236 0
 567 0002 0120     		movs	r0, #1
 568 0004 FFF7FEFF 		bl	LCD_WriteControl
 569              	.LVL66:
 237:AS7262.c      ****     LCD_PrintString("SingleRead  ");
 570              		.loc 1 237 0
 571 0008 0021     		movs	r1, #0
 572 000a 0846     		mov	r0, r1
 573 000c FFF7FEFF 		bl	LCD_Position
 574              	.LVL67:
 238:AS7262.c      ****     I2C_AS7262_Write( AS726x_REG_CONTROL, as7262.control_reg_value );
 575              		.loc 1 238 0
 576 0010 1D48     		ldr	r0, .L48+8
 577 0012 FFF7FEFF 		bl	LCD_PrintString
 578              	.LVL68:
 239:AS7262.c      ****     LCD_Position(0, 0);
 579              		.loc 1 239 0
 580 0016 1D4C     		ldr	r4, .L48+12
 581 0018 217C     		ldrb	r1, [r4, #16]	@ zero_extendqisi2
 582 001a 0420     		movs	r0, #4
 583 001c FFF7FEFF 		bl	I2C_AS7262_Write
 584              	.LVL69:
 240:AS7262.c      ****     LCD_PrintString("SingleRead2  ");
 585              		.loc 1 240 0
 586 0020 0021     		movs	r1, #0
 587 0022 0846     		mov	r0, r1
 588 0024 FFF7FEFF 		bl	LCD_Position
 589              	.LVL70:
 241:AS7262.c      ****     
 590              		.loc 1 241 0
 591 0028 1948     		ldr	r0, .L48+16
 592 002a FFF7FEFF 		bl	LCD_PrintString
 593              	.LVL71:
 243:AS7262.c      ****     uint8 data;
 594              		.loc 1 243 0
 595 002e E078     		ldrb	r0, [r4, #3]	@ zero_extendqisi2
 596 0030 FFF7FEFF 		bl	__aeabi_i2d
 597              	.LVL72:
 598 0034 12A3     		adr	r3, .L48
 599 0036 D3E90023 		ldrd	r2, [r3]
 600 003a FFF7FEFF 		bl	__aeabi_dmul
ARM GAS  C:\Users\kvl6\AppData\Local\Temp\ccDFWSTJ.s 			page 19


 601              	.LVL73:
 602 003e FFF7FEFF 		bl	__aeabi_d2uiz
 603              	.LVL74:
 604 0042 FFF7FEFF 		bl	CyDelay
 605              	.LVL75:
 245:AS7262.c      ****     do {
 606              		.loc 1 245 0
 607 0046 0024     		movs	r4, #0
 608              	.LVL76:
 609              	.L46:
 247:AS7262.c      ****         data = I2C_AS7262_Read( AS726x_REG_CONTROL );
 610              		.loc 1 247 0
 611 0048 0120     		movs	r0, #1
 612 004a FFF7FEFF 		bl	CyDelay
 613              	.LVL77:
 248:AS7262.c      ****         failed_tries++;
 614              		.loc 1 248 0
 615 004e 0420     		movs	r0, #4
 616 0050 FFF7FEFF 		bl	I2C_AS7262_Read
 617              	.LVL78:
 618 0054 0546     		mov	r5, r0
 619              	.LVL79:
 249:AS7262.c      ****         if ( failed_tries > 200 ) {
 620              		.loc 1 249 0
 621 0056 0134     		adds	r4, r4, #1
 622              	.LVL80:
 623 0058 E4B2     		uxtb	r4, r4
 624              	.LVL81:
 250:AS7262.c      ****             USB_Export_Data((uint8*)"FAILED", 6);
 625              		.loc 1 250 0
 626 005a C82C     		cmp	r4, #200
 627 005c 03D9     		bls	.L45
 251:AS7262.c      ****         }
 628              		.loc 1 251 0
 629 005e 0621     		movs	r1, #6
 630 0060 0C48     		ldr	r0, .L48+20
 631 0062 FFF7FEFF 		bl	USB_Export_Data
 632              	.LVL82:
 633              	.L45:
 253:AS7262.c      **** //    LCD_Position(1, 0); 
 634              		.loc 1 253 0
 635 0066 15F0020F 		tst	r5, #2
 636 006a EDD1     		bne	.L46
 261:AS7262.c      ****     USB_Export_Data(all_calibrated_data.data_bytes, 24);
 637              		.loc 1 261 0
 638 006c FFF7FEFF 		bl	AS7262_ReadAllData
 639              	.LVL83:
 262:AS7262.c      **** }
 640              		.loc 1 262 0
 641 0070 1821     		movs	r1, #24
 642 0072 0948     		ldr	r0, .L48+24
 643 0074 FFF7FEFF 		bl	USB_Export_Data
 644              	.LVL84:
 645 0078 38BD     		pop	{r3, r4, r5, pc}
 646              	.LVL85:
 647              	.L49:
 648 007a 00BFAFF3 		.align	3
ARM GAS  C:\Users\kvl6\AppData\Local\Temp\ccDFWSTJ.s 			page 20


 648      0080
 649              	.L48:
 650 0080 33333333 		.word	858993459
 651 0084 33331740 		.word	1075262259
 652 0088 28000000 		.word	.LC3
 653 008c 00000000 		.word	.LANCHOR0
 654 0090 38000000 		.word	.LC4
 655 0094 48000000 		.word	.LC5
 656 0098 00000000 		.word	all_calibrated_data
 657              		.cfi_endproc
 658              	.LFE70:
 659              		.size	AS7262_SingleRead, .-AS7262_SingleRead
 660              		.section	.text.hex_value_from_char,"ax",%progbits
 661              		.align	2
 662              		.global	hex_value_from_char
 663              		.thumb
 664              		.thumb_func
 665              		.type	hex_value_from_char, %function
 666              	hex_value_from_char:
 667              	.LFB77:
 357:AS7262.c      **** 
 358:AS7262.c      **** uint8 convert_hex_string(uint8 array[]) {
 359:AS7262.c      ****     uint8 num = hex_value_from_char(array[0]) << 4;
 360:AS7262.c      ****     num |= hex_value_from_char(array[1]);
 361:AS7262.c      ****     return num;
 362:AS7262.c      ****     
 363:AS7262.c      **** }
 364:AS7262.c      **** 
 365:AS7262.c      **** uint8 hex_value_from_char(uint8 _char) {
 668              		.loc 1 365 0
 669              		.cfi_startproc
 670              		@ args = 0, pretend = 0, frame = 0
 671              		@ frame_needed = 0, uses_anonymous_args = 0
 672              		@ link register save eliminated.
 673              	.LVL86:
 674 0000 0246     		mov	r2, r0
 366:AS7262.c      ****     if ( ('0' <= _char) && (_char <= '9') ) {  // char is between 0-9
 675              		.loc 1 366 0
 676 0002 A0F13003 		sub	r3, r0, #48
 677 0006 D8B2     		uxtb	r0, r3
 678              	.LVL87:
 679 0008 0928     		cmp	r0, #9
 680 000a 12D9     		bls	.L51
 367:AS7262.c      ****         return (_char - '0');
 368:AS7262.c      ****     }
 369:AS7262.c      ****     else if ( ('A' <= _char) && (_char <= 'F') ) {  // char is between A-F
 681              		.loc 1 369 0
 682 000c A2F14103 		sub	r3, r2, #65
 683 0010 DBB2     		uxtb	r3, r3
 684 0012 052B     		cmp	r3, #5
 685 0014 03D8     		bhi	.L52
 370:AS7262.c      ****         return (10 + _char - 'A');
 686              		.loc 1 370 0
 687 0016 A2F13700 		sub	r0, r2, #55
 688 001a C0B2     		uxtb	r0, r0
 689 001c 7047     		bx	lr
 690              	.L52:
ARM GAS  C:\Users\kvl6\AppData\Local\Temp\ccDFWSTJ.s 			page 21


 371:AS7262.c      ****     }
 372:AS7262.c      ****     else if ( ('a' <= _char) && (_char <= 'f') ) {  // char is between a-f
 691              		.loc 1 372 0
 692 001e A2F16103 		sub	r3, r2, #97
 693 0022 DBB2     		uxtb	r3, r3
 694 0024 052B     		cmp	r3, #5
 695 0026 03D8     		bhi	.L53
 373:AS7262.c      ****         return (10 + _char - 'a');
 696              		.loc 1 373 0
 697 0028 A2F15700 		sub	r0, r2, #87
 698 002c C0B2     		uxtb	r0, r0
 699 002e 7047     		bx	lr
 700              	.L53:
 374:AS7262.c      ****     }
 375:AS7262.c      ****     return 0;
 701              		.loc 1 375 0
 702 0030 0020     		movs	r0, #0
 703              	.L51:
 376:AS7262.c      **** }
 704              		.loc 1 376 0
 705 0032 7047     		bx	lr
 706              		.cfi_endproc
 707              	.LFE77:
 708              		.size	hex_value_from_char, .-hex_value_from_char
 709              		.section	.text.convert_hex_string,"ax",%progbits
 710              		.align	2
 711              		.global	convert_hex_string
 712              		.thumb
 713              		.thumb_func
 714              		.type	convert_hex_string, %function
 715              	convert_hex_string:
 716              	.LFB76:
 358:AS7262.c      ****     uint8 num = hex_value_from_char(array[0]) << 4;
 717              		.loc 1 358 0
 718              		.cfi_startproc
 719              		@ args = 0, pretend = 0, frame = 0
 720              		@ frame_needed = 0, uses_anonymous_args = 0
 721              	.LVL88:
 722 0000 38B5     		push	{r3, r4, r5, lr}
 723              		.cfi_def_cfa_offset 16
 724              		.cfi_offset 3, -16
 725              		.cfi_offset 4, -12
 726              		.cfi_offset 5, -8
 727              		.cfi_offset 14, -4
 728 0002 0546     		mov	r5, r0
 359:AS7262.c      ****     num |= hex_value_from_char(array[1]);
 729              		.loc 1 359 0
 730 0004 0078     		ldrb	r0, [r0]	@ zero_extendqisi2
 731              	.LVL89:
 732 0006 FFF7FEFF 		bl	hex_value_from_char
 733              	.LVL90:
 734 000a 0001     		lsls	r0, r0, #4
 735 000c C4B2     		uxtb	r4, r0
 736              	.LVL91:
 360:AS7262.c      ****     return num;
 737              		.loc 1 360 0
 738 000e 6878     		ldrb	r0, [r5, #1]	@ zero_extendqisi2
ARM GAS  C:\Users\kvl6\AppData\Local\Temp\ccDFWSTJ.s 			page 22


 739 0010 FFF7FEFF 		bl	hex_value_from_char
 740              	.LVL92:
 741 0014 2043     		orrs	r0, r0, r4
 742              	.LVL93:
 363:AS7262.c      **** 
 743              		.loc 1 363 0
 744 0016 C0B2     		uxtb	r0, r0
 745 0018 38BD     		pop	{r3, r4, r5, pc}
 746              		.cfi_endproc
 747              	.LFE76:
 748              		.size	convert_hex_string, .-convert_hex_string
 749 001a 00BF     		.section	.text.ConvertDecimal,"ax",%progbits
 750              		.align	2
 751              		.global	ConvertDecimal
 752              		.thumb
 753              		.thumb_func
 754              		.type	ConvertDecimal, %function
 755              	ConvertDecimal:
 756              	.LFB78:
 377:AS7262.c      **** 
 378:AS7262.c      **** uint16 ConvertDecimal(uint8 array[], uint8 len) {
 757              		.loc 1 378 0
 758              		.cfi_startproc
 759              		@ args = 0, pretend = 0, frame = 0
 760              		@ frame_needed = 0, uses_anonymous_args = 0
 761              		@ link register save eliminated.
 762              	.LVL94:
 763 0000 30B4     		push	{r4, r5}
 764              		.cfi_def_cfa_offset 8
 765              		.cfi_offset 4, -8
 766              		.cfi_offset 5, -4
 767              	.LVL95:
 768              	.LBB4:
 379:AS7262.c      ****     uint16 num = 0;
 380:AS7262.c      ****     for (int i = 0; i < len; i++){
 769              		.loc 1 380 0
 770 0002 0024     		movs	r4, #0
 771              	.LBE4:
 379:AS7262.c      ****     uint16 num = 0;
 772              		.loc 1 379 0
 773 0004 2346     		mov	r3, r4
 774              	.LBB5:
 775              		.loc 1 380 0
 776 0006 08E0     		b	.L57
 777              	.LVL96:
 778              	.L58:
 381:AS7262.c      ****         num = num * 10 + (array[i] - '0');
 779              		.loc 1 381 0 discriminator 3
 780 0008 025D     		ldrb	r2, [r0, r4]	@ zero_extendqisi2
 781 000a 03EB8303 		add	r3, r3, r3, lsl #2
 782              	.LVL97:
 783 000e 5D00     		lsls	r5, r3, #1
 784 0010 AB18     		adds	r3, r5, r2
 785 0012 9BB2     		uxth	r3, r3
 786 0014 303B     		subs	r3, r3, #48
 787 0016 9BB2     		uxth	r3, r3
 788              	.LVL98:
ARM GAS  C:\Users\kvl6\AppData\Local\Temp\ccDFWSTJ.s 			page 23


 380:AS7262.c      ****         num = num * 10 + (array[i] - '0');
 789              		.loc 1 380 0 discriminator 3
 790 0018 0134     		adds	r4, r4, #1
 791              	.LVL99:
 792              	.L57:
 380:AS7262.c      ****         num = num * 10 + (array[i] - '0');
 793              		.loc 1 380 0 is_stmt 0 discriminator 1
 794 001a 8C42     		cmp	r4, r1
 795 001c F4DB     		blt	.L58
 796              	.LBE5:
 382:AS7262.c      ****     }
 383:AS7262.c      ****     return num;
 384:AS7262.c      **** }
 797              		.loc 1 384 0 is_stmt 1
 798 001e 1846     		mov	r0, r3
 799              	.LVL100:
 800 0020 30BC     		pop	{r4, r5}
 801              		.cfi_restore 5
 802              		.cfi_restore 4
 803              		.cfi_def_cfa_offset 0
 804              	.LVL101:
 805 0022 7047     		bx	lr
 806              		.cfi_endproc
 807              	.LFE78:
 808              		.size	ConvertDecimal, .-ConvertDecimal
 809              		.section	.text.AS7262_Commands,"ax",%progbits
 810              		.align	2
 811              		.global	AS7262_Commands
 812              		.thumb
 813              		.thumb_func
 814              		.type	AS7262_Commands, %function
 815              	AS7262_Commands:
 816              	.LFB67:
 155:AS7262.c      ****     switch ( buffer[7] ) {
 817              		.loc 1 155 0
 818              		.cfi_startproc
 819              		@ args = 0, pretend = 0, frame = 0
 820              		@ frame_needed = 0, uses_anonymous_args = 0
 821              	.LVL102:
 822 0000 2DE9F041 		push	{r4, r5, r6, r7, r8, lr}
 823              		.cfi_def_cfa_offset 24
 824              		.cfi_offset 4, -24
 825              		.cfi_offset 5, -20
 826              		.cfi_offset 6, -16
 827              		.cfi_offset 7, -12
 828              		.cfi_offset 8, -8
 829              		.cfi_offset 14, -4
 830 0004 0446     		mov	r4, r0
 156:AS7262.c      ****         case READ_COMMANDS: ;  // a command to read 'READ' data is given, or register commands 'REG
 831              		.loc 1 156 0
 832 0006 C379     		ldrb	r3, [r0, #7]	@ zero_extendqisi2
 833 0008 473B     		subs	r3, r3, #71
 834 000a 0B2B     		cmp	r3, #11
 835 000c 00F29F80 		bhi	.L60
 836 0010 DFE803F0 		tbb	[pc, r3]
 837              	.L63:
 838 0014 70       		.byte	(.L62-.L63)/2
ARM GAS  C:\Users\kvl6\AppData\Local\Temp\ccDFWSTJ.s 			page 24


 839 0015 9D       		.byte	(.L60-.L63)/2
 840 0016 64       		.byte	(.L64-.L63)/2
 841 0017 9D       		.byte	(.L60-.L63)/2
 842 0018 9D       		.byte	(.L60-.L63)/2
 843 0019 8A       		.byte	(.L65-.L63)/2
 844 001a 9D       		.byte	(.L60-.L63)/2
 845 001b 9D       		.byte	(.L60-.L63)/2
 846 001c 9D       		.byte	(.L60-.L63)/2
 847 001d 7D       		.byte	(.L66-.L63)/2
 848 001e 9D       		.byte	(.L60-.L63)/2
 849 001f 06       		.byte	(.L67-.L63)/2
 850              		.p2align 1
 851              	.L67:
 852              	.LBB6:
 158:AS7262.c      ****                 if ( buffer[11] == 'W' ) {  // Write a register value
 853              		.loc 1 158 0
 854 0020 437A     		ldrb	r3, [r0, #9]	@ zero_extendqisi2
 855 0022 472B     		cmp	r3, #71
 856 0024 4CD1     		bne	.L68
 159:AS7262.c      ****                     uint8 reg_to_write = convert_hex_string(&buffer[19]);
 857              		.loc 1 159 0
 858 0026 C37A     		ldrb	r3, [r0, #11]	@ zero_extendqisi2
 859 0028 572B     		cmp	r3, #87
 860 002a 28D1     		bne	.L69
 861              	.LBB7:
 160:AS7262.c      ****                     uint8 value_to_write = convert_hex_string(&buffer[24]);
 862              		.loc 1 160 0
 863 002c 1330     		adds	r0, r0, #19
 864              	.LVL103:
 865 002e FFF7FEFF 		bl	convert_hex_string
 866              	.LVL104:
 867 0032 0646     		mov	r6, r0
 868              	.LVL105:
 161:AS7262.c      ****                     I2C_AS7262_Write(reg_to_write, value_to_write);
 869              		.loc 1 161 0
 870 0034 04F11800 		add	r0, r4, #24
 871 0038 FFF7FEFF 		bl	convert_hex_string
 872              	.LVL106:
 873 003c 0746     		mov	r7, r0
 874              	.LVL107:
 162:AS7262.c      ****                     LCD_Position(0, 0); 
 875              		.loc 1 162 0
 876 003e 0146     		mov	r1, r0
 877 0040 3046     		mov	r0, r6
 878              	.LVL108:
 879 0042 FFF7FEFF 		bl	I2C_AS7262_Write
 880              	.LVL109:
 163:AS7262.c      ****                     sprintf(LCD_str, "R:0x%02x|v:0x%02x  ", reg_to_write, value_to_write);
 881              		.loc 1 163 0
 882 0046 0021     		movs	r1, #0
 883 0048 0846     		mov	r0, r1
 884 004a FFF7FEFF 		bl	LCD_Position
 885              	.LVL110:
 164:AS7262.c      ****                     LCD_PrintString(LCD_str);
 886              		.loc 1 164 0
 887 004e 414D     		ldr	r5, .L75
 888 0050 3B46     		mov	r3, r7
ARM GAS  C:\Users\kvl6\AppData\Local\Temp\ccDFWSTJ.s 			page 25


 889 0052 3246     		mov	r2, r6
 890 0054 4049     		ldr	r1, .L75+4
 891 0056 2846     		mov	r0, r5
 892 0058 FFF7FEFF 		bl	sprintf
 893              	.LVL111:
 165:AS7262.c      ****                     LCD_Position(1, 0); 
 894              		.loc 1 165 0
 895 005c 2846     		mov	r0, r5
 896 005e FFF7FEFF 		bl	LCD_PrintString
 897              	.LVL112:
 166:AS7262.c      ****                     sprintf(LCD_str, "B:%c|v:%c  ", buffer[24], buffer[25]);
 898              		.loc 1 166 0
 899 0062 0021     		movs	r1, #0
 900 0064 0120     		movs	r0, #1
 901 0066 FFF7FEFF 		bl	LCD_Position
 902              	.LVL113:
 167:AS7262.c      ****                     LCD_PrintString(LCD_str);
 903              		.loc 1 167 0
 904 006a 637E     		ldrb	r3, [r4, #25]	@ zero_extendqisi2
 905 006c 227E     		ldrb	r2, [r4, #24]	@ zero_extendqisi2
 906 006e 3B49     		ldr	r1, .L75+8
 907 0070 2846     		mov	r0, r5
 908 0072 FFF7FEFF 		bl	sprintf
 909              	.LVL114:
 168:AS7262.c      ****                     
 910              		.loc 1 168 0
 911 0076 2846     		mov	r0, r5
 912 0078 FFF7FEFF 		bl	LCD_PrintString
 913              	.LVL115:
 914              	.LBE7:
 915 007c 20E0     		b	.L68
 916              	.LVL116:
 917              	.L69:
 171:AS7262.c      ****                     uint8 reg_to_read = convert_hex_string(&buffer[18]);
 918              		.loc 1 171 0
 919 007e 522B     		cmp	r3, #82
 920 0080 1ED1     		bne	.L68
 921              	.LBB8:
 172:AS7262.c      ****                     uint8 reg_value = I2C_AS7262_Read(reg_to_read);
 922              		.loc 1 172 0
 923 0082 1230     		adds	r0, r0, #18
 924              	.LVL117:
 925 0084 FFF7FEFF 		bl	convert_hex_string
 926              	.LVL118:
 927 0088 8046     		mov	r8, r0
 928              	.LVL119:
 173:AS7262.c      ****                     sprintf(USB_str, "REG_VALUE|0x%02X", reg_value);
 929              		.loc 1 173 0
 930 008a FFF7FEFF 		bl	I2C_AS7262_Read
 931              	.LVL120:
 932 008e 0746     		mov	r7, r0
 933              	.LVL121:
 174:AS7262.c      ****                     LCD_Position(0, 0); 
 934              		.loc 1 174 0
 935 0090 334D     		ldr	r5, .L75+12
 936 0092 0246     		mov	r2, r0
 937 0094 3349     		ldr	r1, .L75+16
ARM GAS  C:\Users\kvl6\AppData\Local\Temp\ccDFWSTJ.s 			page 26


 938 0096 2846     		mov	r0, r5
 939              	.LVL122:
 940 0098 FFF7FEFF 		bl	sprintf
 941              	.LVL123:
 175:AS7262.c      ****                     sprintf(LCD_str, "RegR:0x%02x|v:0x%02x  ", reg_to_read, reg_value);
 942              		.loc 1 175 0
 943 009c 0021     		movs	r1, #0
 944 009e 0846     		mov	r0, r1
 945 00a0 FFF7FEFF 		bl	LCD_Position
 946              	.LVL124:
 176:AS7262.c      ****                     // sprintf(LCD_str, "RegR:0x%d|v:0x%d  ", buffer[18], buffer[19]);
 947              		.loc 1 176 0
 948 00a4 2B4E     		ldr	r6, .L75
 949 00a6 3B46     		mov	r3, r7
 950 00a8 4246     		mov	r2, r8
 951 00aa 2F49     		ldr	r1, .L75+20
 952 00ac 3046     		mov	r0, r6
 953 00ae FFF7FEFF 		bl	sprintf
 954              	.LVL125:
 178:AS7262.c      ****                     USB_Export_Data((uint8*)USB_str, 14);
 955              		.loc 1 178 0
 956 00b2 3046     		mov	r0, r6
 957 00b4 FFF7FEFF 		bl	LCD_PrintString
 958              	.LVL126:
 179:AS7262.c      ****                 }
 959              		.loc 1 179 0
 960 00b8 0E21     		movs	r1, #14
 961 00ba 2846     		mov	r0, r5
 962 00bc FFF7FEFF 		bl	USB_Export_Data
 963              	.LVL127:
 964              	.L68:
 965              	.LBE8:
 182:AS7262.c      ****                 LCD_Position(0, 0);
 966              		.loc 1 182 0
 967 00c0 237B     		ldrb	r3, [r4, #12]	@ zero_extendqisi2
 968 00c2 532B     		cmp	r3, #83
 969 00c4 43D1     		bne	.L60
 183:AS7262.c      ****                 LCD_PrintString("Single Read");
 970              		.loc 1 183 0
 971 00c6 0021     		movs	r1, #0
 972 00c8 0846     		mov	r0, r1
 973 00ca FFF7FEFF 		bl	LCD_Position
 974              	.LVL128:
 184:AS7262.c      ****                 AS7262_SingleRead();
 975              		.loc 1 184 0
 976 00ce 2748     		ldr	r0, .L75+24
 977 00d0 FFF7FEFF 		bl	LCD_PrintString
 978              	.LVL129:
 185:AS7262.c      ****             }
 979              		.loc 1 185 0
 980 00d4 FFF7FEFF 		bl	AS7262_SingleRead
 981              	.LVL130:
 982 00d8 BDE8F081 		pop	{r4, r5, r6, r7, r8, pc}
 983              	.LVL131:
 984              	.L64:
 189:AS7262.c      ****             as7262.integration_time = new_integration_time;
 985              		.loc 1 189 0
ARM GAS  C:\Users\kvl6\AppData\Local\Temp\ccDFWSTJ.s 			page 27


 986 00dc 0321     		movs	r1, #3
 987 00de 1630     		adds	r0, r0, #22
 988              	.LVL132:
 989 00e0 FFF7FEFF 		bl	ConvertDecimal
 990              	.LVL133:
 991 00e4 C1B2     		uxtb	r1, r0
 992              	.LVL134:
 190:AS7262.c      ****             I2C_AS7262_Write( AS726x_REG_INT, as7262.integration_time );
 993              		.loc 1 190 0
 994 00e6 224B     		ldr	r3, .L75+28
 995 00e8 D970     		strb	r1, [r3, #3]
 191:AS7262.c      ****             break;
 996              		.loc 1 191 0
 997 00ea 0520     		movs	r0, #5
 998 00ec FFF7FEFF 		bl	I2C_AS7262_Write
 999              	.LVL135:
 192:AS7262.c      ****             
 1000              		.loc 1 192 0
 1001 00f0 BDE8F081 		pop	{r4, r5, r6, r7, r8, pc}
 1002              	.LVL136:
 1003              	.L62:
 195:AS7262.c      ****             update_control_reg_value( &as7262 );
 1004              		.loc 1 195 0
 1005 00f4 0121     		movs	r1, #1
 1006 00f6 0C30     		adds	r0, r0, #12
 1007              	.LVL137:
 1008 00f8 FFF7FEFF 		bl	ConvertDecimal
 1009              	.LVL138:
 1010 00fc 1C4B     		ldr	r3, .L75+28
 1011 00fe 00F00300 		and	r0, r0, #3
 1012 0102 5870     		strb	r0, [r3, #1]
 196:AS7262.c      ****             break;
 1013              		.loc 1 196 0
 1014 0104 1846     		mov	r0, r3
 1015 0106 FFF7FEFF 		bl	update_control_reg_value
 1016              	.LVL139:
 197:AS7262.c      ****         case SET_LED_POWER: ; // set the current through the main light source
 1017              		.loc 1 197 0
 1018 010a BDE8F081 		pop	{r4, r5, r6, r7, r8, pc}
 1019              	.LVL140:
 1020              	.L66:
 199:AS7262.c      ****             update_LED_reg_value( &as7262 );
 1021              		.loc 1 199 0
 1022 010e 0121     		movs	r1, #1
 1023 0110 1330     		adds	r0, r0, #19
 1024              	.LVL141:
 1025 0112 FFF7FEFF 		bl	ConvertDecimal
 1026              	.LVL142:
 1027 0116 164B     		ldr	r3, .L75+28
 1028 0118 00F00300 		and	r0, r0, #3
 1029 011c 1871     		strb	r0, [r3, #4]
 200:AS7262.c      ****             break;
 1030              		.loc 1 200 0
 1031 011e 1846     		mov	r0, r3
 1032 0120 FFF7FEFF 		bl	update_LED_reg_value
 1033              	.LVL143:
 201:AS7262.c      ****         case LED_ON_OFF: ;  //  set if the LED should be on or off
ARM GAS  C:\Users\kvl6\AppData\Local\Temp\ccDFWSTJ.s 			page 28


 1034              		.loc 1 201 0
 1035 0124 BDE8F081 		pop	{r4, r5, r6, r7, r8, pc}
 1036              	.LVL144:
 1037              	.L65:
 203:AS7262.c      ****                 as7262.LED_on = True;
 1038              		.loc 1 203 0
 1039 0128 437C     		ldrb	r3, [r0, #17]	@ zero_extendqisi2
 1040 012a 4E2B     		cmp	r3, #78
 1041 012c 01D0     		beq	.L70
 203:AS7262.c      ****                 as7262.LED_on = True;
 1042              		.loc 1 203 0 is_stmt 0 discriminator 1
 1043 012e 6E2B     		cmp	r3, #110
 1044 0130 03D1     		bne	.L71
 1045              	.L70:
 204:AS7262.c      ****             }
 1046              		.loc 1 204 0 is_stmt 1
 1047 0132 0122     		movs	r2, #1
 1048 0134 0E4B     		ldr	r3, .L75+28
 1049 0136 5A71     		strb	r2, [r3, #5]
 1050 0138 06E0     		b	.L72
 1051              	.L71:
 206:AS7262.c      ****                 as7262.LED_on = False;
 1052              		.loc 1 206 0
 1053 013a 462B     		cmp	r3, #70
 1054 013c 01D0     		beq	.L73
 206:AS7262.c      ****                 as7262.LED_on = False;
 1055              		.loc 1 206 0 is_stmt 0 discriminator 1
 1056 013e 662B     		cmp	r3, #102
 1057 0140 02D1     		bne	.L72
 1058              	.L73:
 207:AS7262.c      ****             }
 1059              		.loc 1 207 0 is_stmt 1
 1060 0142 0022     		movs	r2, #0
 1061 0144 0A4B     		ldr	r3, .L75+28
 1062 0146 5A71     		strb	r2, [r3, #5]
 1063              	.L72:
 209:AS7262.c      ****             break;
 1064              		.loc 1 209 0
 1065 0148 0948     		ldr	r0, .L75+28
 1066              	.LVL145:
 1067 014a FFF7FEFF 		bl	update_LED_reg_value
 1068              	.LVL146:
 1069              	.L60:
 1070 014e BDE8F081 		pop	{r4, r5, r6, r7, r8, pc}
 1071              	.LVL147:
 1072              	.L76:
 1073 0152 00BF     		.align	2
 1074              	.L75:
 1075 0154 00000000 		.word	LCD_str
 1076 0158 50000000 		.word	.LC6
 1077 015c 64000000 		.word	.LC7
 1078 0160 00000000 		.word	USB_str
 1079 0164 70000000 		.word	.LC8
 1080 0168 84000000 		.word	.LC9
 1081 016c 9C000000 		.word	.LC10
 1082 0170 00000000 		.word	.LANCHOR0
 1083              	.LBE6:
ARM GAS  C:\Users\kvl6\AppData\Local\Temp\ccDFWSTJ.s 			page 29


 1084              		.cfi_endproc
 1085              	.LFE67:
 1086              		.size	AS7262_Commands, .-AS7262_Commands
 1087              		.comm	color_data,24,4
 1088              		.comm	all_calibrated_data,24,4
 1089              		.global	as7262
 1090              		.comm	write_buffer,2,4
 1091              		.comm	read_buffer,24,4
 1092              		.comm	USB_str,40,4
 1093              		.comm	OUT_Data_Buffer,40,4
 1094              		.data
 1095              		.align	2
 1096              		.set	.LANCHOR0,. + 0
 1097              		.type	as7262, %object
 1098              		.size	as7262, 20
 1099              	as7262:
 1100 0000 03       		.byte	3
 1101 0001 00       		.byte	0
 1102 0002 01       		.byte	1
 1103 0003 FF       		.byte	-1
 1104 0004 00       		.byte	0
 1105 0005 00       		.byte	0
 1106 0006 02       		.byte	2
 1107 0007 00       		.byte	0
 1108 0008 00000000 		.space	12
 1108      00000000 
 1108      00000000 
 1109              		.section	.rodata.str1.4,"aMS",%progbits,1
 1110              		.align	2
 1111              	.LC0:
 1112 0000 53696E67 		.ascii	"SingleRead3a \000"
 1112      6C655265 
 1112      61643361 
 1112      2000
 1113 000e 0000     		.space	2
 1114              	.LC1:
 1115 0010 53696E67 		.ascii	"SingleRead3b \000"
 1115      6C655265 
 1115      61643362 
 1115      2000
 1116 001e 0000     		.space	2
 1117              	.LC2:
 1118 0020 64656275 		.ascii	"debug1 \000"
 1118      67312000 
 1119              	.LC3:
 1120 0028 53696E67 		.ascii	"SingleRead  \000"
 1120      6C655265 
 1120      61642020 
 1120      00
 1121 0035 000000   		.space	3
 1122              	.LC4:
 1123 0038 53696E67 		.ascii	"SingleRead2  \000"
 1123      6C655265 
 1123      61643220 
 1123      2000
 1124 0046 0000     		.space	2
 1125              	.LC5:
ARM GAS  C:\Users\kvl6\AppData\Local\Temp\ccDFWSTJ.s 			page 30


 1126 0048 4641494C 		.ascii	"FAILED\000"
 1126      454400
 1127 004f 00       		.space	1
 1128              	.LC6:
 1129 0050 523A3078 		.ascii	"R:0x%02x|v:0x%02x  \000"
 1129      25303278 
 1129      7C763A30 
 1129      78253032 
 1129      78202000 
 1130              	.LC7:
 1131 0064 423A2563 		.ascii	"B:%c|v:%c  \000"
 1131      7C763A25 
 1131      63202000 
 1132              	.LC8:
 1133 0070 5245475F 		.ascii	"REG_VALUE|0x%02X\000"
 1133      56414C55 
 1133      457C3078 
 1133      25303258 
 1133      00
 1134 0081 000000   		.space	3
 1135              	.LC9:
 1136 0084 52656752 		.ascii	"RegR:0x%02x|v:0x%02x  \000"
 1136      3A307825 
 1136      3032787C 
 1136      763A3078 
 1136      25303278 
 1137 009b 00       		.space	1
 1138              	.LC10:
 1139 009c 53696E67 		.ascii	"Single Read\000"
 1139      6C652052 
 1139      65616400 
 1140              		.text
 1141              	.Letext0:
 1142              		.file 2 "c:\\program files (x86)\\cypress\\psoc creator\\4.2\\psoc creator\\import\\gnu\\arm\\5.4.
 1143              		.file 3 "c:\\program files (x86)\\cypress\\psoc creator\\4.2\\psoc creator\\import\\gnu\\arm\\5.4.
 1144              		.file 4 "Generated_Source\\PSoC5/cytypes.h"
 1145              		.file 5 "AS7262.h"
 1146              		.file 6 "Generated_Source\\PSoC5/core_cm3.h"
 1147              		.file 7 "usb_functions.h"
 1148              		.file 8 "Generated_Source\\PSoC5/LED_4.h"
 1149              		.file 9 "Generated_Source\\PSoC5/LCD.h"
 1150              		.file 10 "Generated_Source\\PSoC5/AS7262_INT.h"
 1151              		.file 11 "Generated_Source\\PSoC5/LED_3.h"
 1152              		.file 12 "i2c_functions.h"
 1153              		.file 13 "Generated_Source\\PSoC5/CyLib.h"
 1154              		.file 14 "c:\\program files (x86)\\cypress\\psoc creator\\4.2\\psoc creator\\import\\gnu\\arm\\5.4