ARM GAS  C:\Users\kvl6\AppData\Local\Temp\ccbaDWCg.s 			page 1


   1              		.syntax unified
   2              		.cpu cortex-m3
   3              		.fpu softvfp
   4              		.eabi_attribute 20, 1
   5              		.eabi_attribute 21, 1
   6              		.eabi_attribute 23, 3
   7              		.eabi_attribute 24, 1
   8              		.eabi_attribute 25, 1
   9              		.eabi_attribute 26, 1
  10              		.eabi_attribute 30, 1
  11              		.eabi_attribute 34, 1
  12              		.eabi_attribute 18, 4
  13              		.thumb
  14              		.syntax unified
  15              		.file	"i2c_functions.c"
  16              		.text
  17              	.Ltext0:
  18              		.cfi_sections	.debug_frame
  19              		.section	.text.sensor_write,"ax",%progbits
  20              		.align	2
  21              		.thumb
  22              		.thumb_func
  23              		.type	sensor_write, %function
  24              	sensor_write:
  25              	.LFB67:
  26              		.file 1 "i2c_functions.c"
   1:i2c_functions.c **** /*******************************************************************************
   2:i2c_functions.c ****  * File Name: i2c_functions.c
   3:i2c_functions.c ****  * Version 0.80
   4:i2c_functions.c ****  *
   5:i2c_functions.c ****  * Description:
   6:i2c_functions.c ****  *  This file provides higher level I2C functions.
   7:i2c_functions.c ****  *  A I2C master component with the name I2C is required
   8:i2c_functions.c ****  *
   9:i2c_functions.c **** *******************************************************************************
  10:i2c_functions.c ****  * Copyright by Kyle Lopin, Naresuan University, 2017
  11:i2c_functions.c ****  * All Rights Reserved
  12:i2c_functions.c ****  * UNPUBLISHED, LICENSED SOFTWARE.
  13:i2c_functions.c ****  *
  14:i2c_functions.c ****  * CONFIDENTIAL AND PROPRIETARY INFORMATION
  15:i2c_functions.c ****  * WHICH IS THE PROPERTY OF Naresuan University.
  16:i2c_functions.c ****  *
  17:i2c_functions.c ****  * ========================================
  18:i2c_functions.c **** */
  19:i2c_functions.c **** 
  20:i2c_functions.c **** #include "i2c_functions.h"
  21:i2c_functions.c **** 
  22:i2c_functions.c **** extern char LCD_str[40];
  23:i2c_functions.c **** 
  24:i2c_functions.c **** 
  25:i2c_functions.c **** /***************************************
  26:i2c_functions.c **** *      Static Function Prototypes
  27:i2c_functions.c **** ***************************************/ 
  28:i2c_functions.c **** 
  29:i2c_functions.c **** 
  30:i2c_functions.c **** static uint8 sensor_read(uint8 address, uint8* buffer, uint8 _register, uint8 num_bytes);
  31:i2c_functions.c **** static uint8 sensor_write(uint8 address, uint8* buffer, uint8 num_bytes);
ARM GAS  C:\Users\kvl6\AppData\Local\Temp\ccbaDWCg.s 			page 2


  32:i2c_functions.c **** 
  33:i2c_functions.c **** uint8 sensor_write8(uint8 address, uint8* buffer) {   
  34:i2c_functions.c ****     return sensor_write(address, buffer, 2);
  35:i2c_functions.c **** }
  36:i2c_functions.c **** 
  37:i2c_functions.c **** uint8 sensor_write16(uint8 address, uint8* buffer) {   
  38:i2c_functions.c ****     return sensor_write(address, buffer, 3);
  39:i2c_functions.c **** }
  40:i2c_functions.c **** 
  41:i2c_functions.c **** uint8 sensor_write_n(uint8 address, uint8* buffer, uint8 num_bytes) {   
  42:i2c_functions.c ****     return sensor_write(address, buffer, num_bytes);
  43:i2c_functions.c **** }
  44:i2c_functions.c **** 
  45:i2c_functions.c **** uint8 sensor_write(uint8 address, uint8* buffer, uint8 num_bytes) {   
  27              		.loc 1 45 0
  28              		.cfi_startproc
  29              		@ args = 0, pretend = 0, frame = 0
  30              		@ frame_needed = 0, uses_anonymous_args = 0
  31              	.LVL0:
  32 0000 10B5     		push	{r4, lr}
  33              		.cfi_def_cfa_offset 8
  34              		.cfi_offset 4, -8
  35              		.cfi_offset 14, -4
  36              	.LVL1:
  46:i2c_functions.c ****     uint8 status = 0;
  47:i2c_functions.c ****     status = I2C_MasterWriteBuf(address, buffer, num_bytes, I2C_MODE_COMPLETE_XFER);
  37              		.loc 1 47 0
  38 0002 0023     		movs	r3, #0
  39 0004 FFF7FEFF 		bl	I2C_MasterWriteBuf
  40              	.LVL2:
  41 0008 0446     		mov	r4, r0
  42              	.LVL3:
  43              	.L2:
  48:i2c_functions.c ****     for(;;) {
  49:i2c_functions.c ****         if (0x00 != (I2C_MasterStatus() & I2C_MSTAT_WR_CMPLT)) {
  44              		.loc 1 49 0
  45 000a FFF7FEFF 		bl	I2C_MasterStatus
  46              	.LVL4:
  47 000e 10F0020F 		tst	r0, #2
  48 0012 FAD0     		beq	.L2
  50:i2c_functions.c ****             break;
  51:i2c_functions.c ****         }
  52:i2c_functions.c ****     }
  53:i2c_functions.c ****     return status;
  54:i2c_functions.c **** }
  49              		.loc 1 54 0
  50 0014 2046     		mov	r0, r4
  51 0016 10BD     		pop	{r4, pc}
  52              		.cfi_endproc
  53              	.LFE67:
  54              		.size	sensor_write, .-sensor_write
  55              		.section	.text.sensor_read,"ax",%progbits
  56              		.align	2
  57              		.thumb
  58              		.thumb_func
  59              		.type	sensor_read, %function
  60              	sensor_read:
ARM GAS  C:\Users\kvl6\AppData\Local\Temp\ccbaDWCg.s 			page 3


  61              	.LFB71:
  55:i2c_functions.c **** 
  56:i2c_functions.c **** 
  57:i2c_functions.c **** 
  58:i2c_functions.c **** uint8 sensor_read8(uint8 address, uint8* buffer, uint8 _register, uint8* error) {
  59:i2c_functions.c **** //    LCD_Position(0, 0); 
  60:i2c_functions.c **** //    LCD_PrintString("read0010   ");
  61:i2c_functions.c ****     *error = sensor_read(address, buffer, _register, 1);
  62:i2c_functions.c ****     return buffer[0];
  63:i2c_functions.c **** }
  64:i2c_functions.c **** 
  65:i2c_functions.c **** uint16 sensor_read16(uint8 address, uint8* buffer, uint8 _register, uint8* error) {
  66:i2c_functions.c ****     *error = sensor_read(address, buffer, _register, 2);
  67:i2c_functions.c ****     return buffer[0] | (buffer[1] << 8);
  68:i2c_functions.c **** }
  69:i2c_functions.c **** 
  70:i2c_functions.c **** uint8 sensor_read_n(uint8 address, uint8* buffer, uint8 _register, uint8 num_bytes) {
  71:i2c_functions.c ****     return sensor_read(address, buffer, _register, num_bytes);
  72:i2c_functions.c **** }
  73:i2c_functions.c **** 
  74:i2c_functions.c **** static uint8 sensor_read(uint8 address, uint8* buffer, uint8 _register, uint8 num_bytes) {
  62              		.loc 1 74 0
  63              		.cfi_startproc
  64              		@ args = 0, pretend = 0, frame = 8
  65              		@ frame_needed = 0, uses_anonymous_args = 0
  66              	.LVL5:
  67 0000 F0B5     		push	{r4, r5, r6, r7, lr}
  68              		.cfi_def_cfa_offset 20
  69              		.cfi_offset 4, -20
  70              		.cfi_offset 5, -16
  71              		.cfi_offset 6, -12
  72              		.cfi_offset 7, -8
  73              		.cfi_offset 14, -4
  74 0002 83B0     		sub	sp, sp, #12
  75              		.cfi_def_cfa_offset 32
  76 0004 0546     		mov	r5, r0
  77 0006 0E46     		mov	r6, r1
  78 0008 1F46     		mov	r7, r3
  79 000a 02A9     		add	r1, sp, #8
  80              	.LVL6:
  81 000c 01F8012D 		strb	r2, [r1, #-1]!
  75:i2c_functions.c ****     uint8 temp;
  76:i2c_functions.c **** //    LCD_Position(0, 0); 
  77:i2c_functions.c **** //    LCD_PrintString("read0020   ");
  78:i2c_functions.c ****     // I2C_MasterSendStart(address, 0);
  79:i2c_functions.c ****     temp = I2C_MasterWriteBuf(address, &_register, 1, I2C_MODE_NO_STOP);
  82              		.loc 1 79 0
  83 0010 0223     		movs	r3, #2
  84              	.LVL7:
  85 0012 0122     		movs	r2, #1
  86              	.LVL8:
  87 0014 FFF7FEFF 		bl	I2C_MasterWriteBuf
  88              	.LVL9:
  89 0018 0446     		mov	r4, r0
  90              	.LVL10:
  91              	.L6:
  80:i2c_functions.c **** //    LCD_Position(0, 0); 
ARM GAS  C:\Users\kvl6\AppData\Local\Temp\ccbaDWCg.s 			page 4


  81:i2c_functions.c **** //    sprintf(LCD_str, "temp stat:%d", temp);
  82:i2c_functions.c **** //    LCD_PrintString(LCD_str);
  83:i2c_functions.c ****     for(;;) {
  84:i2c_functions.c ****         if (0x00 != (I2C_MasterStatus() & I2C_MSTAT_WR_CMPLT)) {
  92              		.loc 1 84 0
  93 001a FFF7FEFF 		bl	I2C_MasterStatus
  94              	.LVL11:
  95 001e 10F0020F 		tst	r0, #2
  96 0022 03D1     		bne	.L5
  85:i2c_functions.c ****             break;
  86:i2c_functions.c ****         }
  87:i2c_functions.c **** //        LCD_Position(0, 0); 
  88:i2c_functions.c **** //        sprintf(LCD_str, "MS status:%d", I2C_MasterStatus());
  89:i2c_functions.c ****         LCD_PrintString(LCD_str);
  97              		.loc 1 89 0
  98 0024 0D48     		ldr	r0, .L11
  99 0026 FFF7FEFF 		bl	LCD_PrintString
 100              	.LVL12:
  90:i2c_functions.c ****     }
 101              		.loc 1 90 0
 102 002a F6E7     		b	.L6
 103              	.L5:
  91:i2c_functions.c ****     if (temp != I2C_MSTR_NO_ERROR ) {
 104              		.loc 1 91 0
 105 002c 0CB1     		cbz	r4, .L7
  92:i2c_functions.c ****         return temp;
 106              		.loc 1 92 0
 107 002e 2046     		mov	r0, r4
 108 0030 11E0     		b	.L4
 109              	.L7:
  93:i2c_functions.c ****     }
  94:i2c_functions.c ****     
  95:i2c_functions.c ****     I2C_MasterClearWriteBuf();
 110              		.loc 1 95 0
 111 0032 FFF7FEFF 		bl	I2C_MasterClearWriteBuf
 112              	.LVL13:
 113              	.L9:
  96:i2c_functions.c **** 
  97:i2c_functions.c ****     do {
  98:i2c_functions.c ****         temp = I2C_MasterReadBuf(address, buffer, num_bytes, I2C_MODE_REPEAT_START);
 114              		.loc 1 98 0
 115 0036 0123     		movs	r3, #1
 116 0038 3A46     		mov	r2, r7
 117 003a 3146     		mov	r1, r6
 118 003c 2846     		mov	r0, r5
 119 003e FFF7FEFF 		bl	I2C_MasterReadBuf
 120              	.LVL14:
 121 0042 0446     		mov	r4, r0
 122              	.LVL15:
 123              	.L8:
  99:i2c_functions.c ****         for(;;) {
 100:i2c_functions.c ****             if (0x00 != (I2C_MasterStatus() & I2C_MSTAT_RD_CMPLT)) {
 124              		.loc 1 100 0
 125 0044 FFF7FEFF 		bl	I2C_MasterStatus
 126              	.LVL16:
 127 0048 10F0010F 		tst	r0, #1
 128 004c FAD0     		beq	.L8
ARM GAS  C:\Users\kvl6\AppData\Local\Temp\ccbaDWCg.s 			page 5


 101:i2c_functions.c ****                 break;
 102:i2c_functions.c ****             }
 103:i2c_functions.c ****         }
 104:i2c_functions.c ****     }
 105:i2c_functions.c ****     while (temp != I2C_MSTR_NO_ERROR);
 129              		.loc 1 105 0
 130 004e 002C     		cmp	r4, #0
 131 0050 F1D1     		bne	.L9
 106:i2c_functions.c ****     I2C_MasterClearReadBuf();
 132              		.loc 1 106 0
 133 0052 FFF7FEFF 		bl	I2C_MasterClearReadBuf
 134              	.LVL17:
 135              	.L4:
 107:i2c_functions.c **** }
 136              		.loc 1 107 0
 137 0056 03B0     		add	sp, sp, #12
 138              		.cfi_def_cfa_offset 20
 139              		@ sp needed
 140 0058 F0BD     		pop	{r4, r5, r6, r7, pc}
 141              	.LVL18:
 142              	.L12:
 143 005a 00BF     		.align	2
 144              	.L11:
 145 005c 00000000 		.word	LCD_str
 146              		.cfi_endproc
 147              	.LFE71:
 148              		.size	sensor_read, .-sensor_read
 149              		.section	.text.sensor_write8,"ax",%progbits
 150              		.align	2
 151              		.global	sensor_write8
 152              		.thumb
 153              		.thumb_func
 154              		.type	sensor_write8, %function
 155              	sensor_write8:
 156              	.LFB64:
  33:i2c_functions.c ****     return sensor_write(address, buffer, 2);
 157              		.loc 1 33 0
 158              		.cfi_startproc
 159              		@ args = 0, pretend = 0, frame = 0
 160              		@ frame_needed = 0, uses_anonymous_args = 0
 161              	.LVL19:
 162 0000 08B5     		push	{r3, lr}
 163              		.cfi_def_cfa_offset 8
 164              		.cfi_offset 3, -8
 165              		.cfi_offset 14, -4
  34:i2c_functions.c **** }
 166              		.loc 1 34 0
 167 0002 0222     		movs	r2, #2
 168 0004 FFF7FEFF 		bl	sensor_write
 169              	.LVL20:
  35:i2c_functions.c **** 
 170              		.loc 1 35 0
 171 0008 08BD     		pop	{r3, pc}
 172              		.cfi_endproc
 173              	.LFE64:
 174              		.size	sensor_write8, .-sensor_write8
 175 000a 00BF     		.section	.text.sensor_write16,"ax",%progbits
ARM GAS  C:\Users\kvl6\AppData\Local\Temp\ccbaDWCg.s 			page 6


 176              		.align	2
 177              		.global	sensor_write16
 178              		.thumb
 179              		.thumb_func
 180              		.type	sensor_write16, %function
 181              	sensor_write16:
 182              	.LFB65:
  37:i2c_functions.c ****     return sensor_write(address, buffer, 3);
 183              		.loc 1 37 0
 184              		.cfi_startproc
 185              		@ args = 0, pretend = 0, frame = 0
 186              		@ frame_needed = 0, uses_anonymous_args = 0
 187              	.LVL21:
 188 0000 08B5     		push	{r3, lr}
 189              		.cfi_def_cfa_offset 8
 190              		.cfi_offset 3, -8
 191              		.cfi_offset 14, -4
  38:i2c_functions.c **** }
 192              		.loc 1 38 0
 193 0002 0322     		movs	r2, #3
 194 0004 FFF7FEFF 		bl	sensor_write
 195              	.LVL22:
  39:i2c_functions.c **** 
 196              		.loc 1 39 0
 197 0008 08BD     		pop	{r3, pc}
 198              		.cfi_endproc
 199              	.LFE65:
 200              		.size	sensor_write16, .-sensor_write16
 201 000a 00BF     		.section	.text.sensor_write_n,"ax",%progbits
 202              		.align	2
 203              		.global	sensor_write_n
 204              		.thumb
 205              		.thumb_func
 206              		.type	sensor_write_n, %function
 207              	sensor_write_n:
 208              	.LFB66:
  41:i2c_functions.c ****     return sensor_write(address, buffer, num_bytes);
 209              		.loc 1 41 0
 210              		.cfi_startproc
 211              		@ args = 0, pretend = 0, frame = 0
 212              		@ frame_needed = 0, uses_anonymous_args = 0
 213              	.LVL23:
 214 0000 08B5     		push	{r3, lr}
 215              		.cfi_def_cfa_offset 8
 216              		.cfi_offset 3, -8
 217              		.cfi_offset 14, -4
  42:i2c_functions.c **** }
 218              		.loc 1 42 0
 219 0002 FFF7FEFF 		bl	sensor_write
 220              	.LVL24:
  43:i2c_functions.c **** 
 221              		.loc 1 43 0
 222 0006 08BD     		pop	{r3, pc}
 223              		.cfi_endproc
 224              	.LFE66:
 225              		.size	sensor_write_n, .-sensor_write_n
 226              		.section	.text.sensor_read8,"ax",%progbits
ARM GAS  C:\Users\kvl6\AppData\Local\Temp\ccbaDWCg.s 			page 7


 227              		.align	2
 228              		.global	sensor_read8
 229              		.thumb
 230              		.thumb_func
 231              		.type	sensor_read8, %function
 232              	sensor_read8:
 233              	.LFB68:
  58:i2c_functions.c **** //    LCD_Position(0, 0); 
 234              		.loc 1 58 0
 235              		.cfi_startproc
 236              		@ args = 0, pretend = 0, frame = 0
 237              		@ frame_needed = 0, uses_anonymous_args = 0
 238              	.LVL25:
 239 0000 38B5     		push	{r3, r4, r5, lr}
 240              		.cfi_def_cfa_offset 16
 241              		.cfi_offset 3, -16
 242              		.cfi_offset 4, -12
 243              		.cfi_offset 5, -8
 244              		.cfi_offset 14, -4
 245 0002 0C46     		mov	r4, r1
 246 0004 1D46     		mov	r5, r3
  61:i2c_functions.c ****     return buffer[0];
 247              		.loc 1 61 0
 248 0006 0123     		movs	r3, #1
 249              	.LVL26:
 250 0008 FFF7FEFF 		bl	sensor_read
 251              	.LVL27:
 252 000c 2870     		strb	r0, [r5]
  63:i2c_functions.c **** 
 253              		.loc 1 63 0
 254 000e 2078     		ldrb	r0, [r4]	@ zero_extendqisi2
 255 0010 38BD     		pop	{r3, r4, r5, pc}
 256              		.cfi_endproc
 257              	.LFE68:
 258              		.size	sensor_read8, .-sensor_read8
 259 0012 00BF     		.section	.text.sensor_read16,"ax",%progbits
 260              		.align	2
 261              		.global	sensor_read16
 262              		.thumb
 263              		.thumb_func
 264              		.type	sensor_read16, %function
 265              	sensor_read16:
 266              	.LFB69:
  65:i2c_functions.c ****     *error = sensor_read(address, buffer, _register, 2);
 267              		.loc 1 65 0
 268              		.cfi_startproc
 269              		@ args = 0, pretend = 0, frame = 0
 270              		@ frame_needed = 0, uses_anonymous_args = 0
 271              	.LVL28:
 272 0000 38B5     		push	{r3, r4, r5, lr}
 273              		.cfi_def_cfa_offset 16
 274              		.cfi_offset 3, -16
 275              		.cfi_offset 4, -12
 276              		.cfi_offset 5, -8
 277              		.cfi_offset 14, -4
 278 0002 0C46     		mov	r4, r1
 279 0004 1D46     		mov	r5, r3
ARM GAS  C:\Users\kvl6\AppData\Local\Temp\ccbaDWCg.s 			page 8


  66:i2c_functions.c ****     return buffer[0] | (buffer[1] << 8);
 280              		.loc 1 66 0
 281 0006 0223     		movs	r3, #2
 282              	.LVL29:
 283 0008 FFF7FEFF 		bl	sensor_read
 284              	.LVL30:
 285 000c 2870     		strb	r0, [r5]
  67:i2c_functions.c **** }
 286              		.loc 1 67 0
 287 000e 2378     		ldrb	r3, [r4]	@ zero_extendqisi2
 288 0010 6078     		ldrb	r0, [r4, #1]	@ zero_extendqisi2
  68:i2c_functions.c **** 
 289              		.loc 1 68 0
 290 0012 43EA0020 		orr	r0, r3, r0, lsl #8
 291 0016 38BD     		pop	{r3, r4, r5, pc}
 292              		.cfi_endproc
 293              	.LFE69:
 294              		.size	sensor_read16, .-sensor_read16
 295              		.section	.text.sensor_read_n,"ax",%progbits
 296              		.align	2
 297              		.global	sensor_read_n
 298              		.thumb
 299              		.thumb_func
 300              		.type	sensor_read_n, %function
 301              	sensor_read_n:
 302              	.LFB70:
  70:i2c_functions.c ****     return sensor_read(address, buffer, _register, num_bytes);
 303              		.loc 1 70 0
 304              		.cfi_startproc
 305              		@ args = 0, pretend = 0, frame = 0
 306              		@ frame_needed = 0, uses_anonymous_args = 0
 307              	.LVL31:
 308 0000 08B5     		push	{r3, lr}
 309              		.cfi_def_cfa_offset 8
 310              		.cfi_offset 3, -8
 311              		.cfi_offset 14, -4
  71:i2c_functions.c **** }
 312              		.loc 1 71 0
 313 0002 FFF7FEFF 		bl	sensor_read
 314              	.LVL32:
  72:i2c_functions.c **** 
 315              		.loc 1 72 0
 316 0006 08BD     		pop	{r3, pc}
 317              		.cfi_endproc
 318              	.LFE70:
 319              		.size	sensor_read_n, .-sensor_read_n
 320              		.text
 321              	.Letext0:
 322              		.file 2 "c:\\program files (x86)\\cypress\\psoc creator\\4.2\\psoc creator\\import\\gnu\\arm\\5.4.
 323              		.file 3 "c:\\program files (x86)\\cypress\\psoc creator\\4.2\\psoc creator\\import\\gnu\\arm\\5.4.
 324              		.file 4 "Generated_Source\\PSoC5/cytypes.h"
 325              		.file 5 "Generated_Source\\PSoC5/core_cm3.h"
 326              		.file 6 "Generated_Source\\PSoC5/I2C.h"
 327              		.file 7 "Generated_Source\\PSoC5/LCD.h"